Component: ARM Compiler 5.06 update 7 (build 960) Tool: armlink [4d3601]

==============================================================================

Section Cross References

    startup_es8h018x.o(STACK) refers (Special) to heapauxi.o(.text) for __use_two_region_memory
    startup_es8h018x.o(HEAP) refers (Special) to heapauxi.o(.text) for __use_two_region_memory
    startup_es8h018x.o(RESET) refers (Special) to heapauxi.o(.text) for __use_two_region_memory
    startup_es8h018x.o(RESET) refers to startup_es8h018x.o(STACK) for __initial_sp
    startup_es8h018x.o(RESET) refers to startup_es8h018x.o(.text) for Reset_IRQHandler
    startup_es8h018x.o(RESET) refers to irqhandler.o(i.NMI_IRQHandler) for NMI_IRQHandler
    startup_es8h018x.o(RESET) refers to irqhandler.o(i.HardFault_IRQHandler) for HardFault_IRQHandler
    startup_es8h018x.o(RESET) refers to irqhandler.o(i.SVC_IRQHandler) for SVC_IRQHandler
    startup_es8h018x.o(RESET) refers to irqhandler.o(i.PendSV_IRQHandler) for PendSV_IRQHandler
    startup_es8h018x.o(RESET) refers to irqhandler.o(i.SysTick_IRQHandler) for SysTick_IRQHandler
    startup_es8h018x.o(RESET) refers to irqhandler.o(i.T16N0_IRQHandler) for T16N0_IRQHandler
    startup_es8h018x.o(RESET) refers to irqhandler.o(i.UART0_IRQHandler) for UART0_IRQHandler
    startup_es8h018x.o(RESET) refers to irqhandler.o(i.UART2_IRQHandler) for UART2_IRQHandler
    startup_es8h018x.o(RESET) refers to irqhandler.o(i.UART4_IRQHandler) for UART4_IRQHandler
    startup_es8h018x.o(.text) refers (Special) to heapauxi.o(.text) for __use_two_region_memory
    startup_es8h018x.o(.text) refers to system_es8h018x.o(i.SystemInit) for SystemInit
    startup_es8h018x.o(.text) refers to __main.o(!!!main) for __main
    startup_es8h018x.o(.text) refers to startup_es8h018x.o(HEAP) for Heap_Mem
    startup_es8h018x.o(.text) refers to startup_es8h018x.o(STACK) for Stack_Mem
    lib_gpio.o(i.BUZC_Frequence) refers to aeabi_sdiv.o(.text) for __aeabi_uidivmod
    lib_gpio.o(i.BUZC_Frequence) refers to fflti.o(.text) for __aeabi_ui2f
    lib_gpio.o(i.BUZC_Frequence) refers to ffixui.o(.text) for __aeabi_f2uiz
    lib_gpio.o(i.BUZC_Frequence) refers to system_es8h018x.o(.data) for SystemCoreClock
    lib_gpio.o(i.GPIO_Init) refers to lib_gpio.o(i.GPIO_SetSingalTypeFromPin) for GPIO_SetSingalTypeFromPin
    lib_gpio.o(i.GPIO_Init) refers to lib_gpio.o(i.GPIO_SetDirRegFromPin) for GPIO_SetDirRegFromPin
    lib_gpio.o(i.GPIO_Init) refers to lib_gpio.o(i.GPIO_SetFuncxRegFromPin) for GPIO_SetFuncxRegFromPin
    lib_gpio.o(i.GPIO_Init) refers to lib_gpio.o(i.GPIO_SetPUERegFromPin) for GPIO_SetPUERegFromPin
    lib_gpio.o(i.GPIO_Init) refers to lib_gpio.o(i.GPIO_SetPDERegFromPin) for GPIO_SetPDERegFromPin
    lib_gpio.o(i.GPIO_Init) refers to lib_gpio.o(i.GPIO_SetODERegFromPin) for GPIO_SetODERegFromPin
    lib_gpio.o(i.GPIO_Init) refers to lib_gpio.o(i.GPIO_SetDSRegFromPin) for GPIO_SetDSRegFromPin
    lib_gpio.o(i.GPIO_Init) refers to lib_gpio.o(i.GPIO_SetPinType) for GPIO_SetPinType
    lib_gpio.o(i.GPIO_Init) refers to lib_gpio.o(i.GPIO_SetPinFLT) for GPIO_SetPinFLT
    lib_gpio.o(i.GPIO_SetFuncxRegFromPin) refers to lib_gpio.o(i.__ARM_common_switch8) for __ARM_common_switch8
    lib_iic.o(i.I2C_Init) refers to aeabi_sdiv.o(.text) for __aeabi_uidivmod
    lib_iic.o(i.I2C_Init) refers to system_es8h018x.o(.data) for SystemCoreClock
    lib_printf.o(i.fputc) refers to lib_uart.o(i.UART_SendByte) for UART_SendByte
    lib_printf.o(i.fputc) refers to lib_uart.o(i.UART_GetFlagStatus) for UART_GetFlagStatus
    lib_printf.o(i.fputc) refers to lib_uart.o(i.UART_ClearITPendingBit) for UART_ClearITPendingBit
    lib_scu.o(i.PLLClock_Config) refers to lib_gpio.o(i.__ARM_common_switch8) for __ARM_common_switch8
    lib_scu.o(i.SystemClockConfig) refers to lib_scu.o(i.SCU_HRCReadyFlag) for SCU_HRCReadyFlag
    lib_scu.o(i.SystemClockConfig) refers to lib_scu.o(i.SCU_SysClkSelect) for SCU_SysClkSelect
    lib_scu.o(i.SystemClockConfig) refers to system_es8h018x.o(.data) for SystemCoreClock
    lib_scu.o(i.SystemClockSelect) refers to lib_scu.o(i.SCU_HRCReadyFlag) for SCU_HRCReadyFlag
    lib_scu.o(i.SystemClockSelect) refers to lib_scu.o(i.SCU_XTALReadyFlag) for SCU_XTALReadyFlag
    lib_spi.o(i.SPI_Init) refers to aeabi_sdiv.o(.text) for __aeabi_uidivmod
    lib_spi.o(i.SPI_Init) refers to system_es8h018x.o(.data) for SystemCoreClock
    lib_timer.o(i.T16Nx_PWMOutConfig) refers to lib_timer.o(i.T16Nx_PWM_MATBUFUP_Enable) for T16Nx_PWM_MATBUFUP_Enable
    lib_uart.o(i.UART_Init) refers to aeabi_sdiv.o(.text) for __aeabi_uidivmod
    lib_uart.o(i.UART_Init) refers to system_es8h018x.o(.data) for SystemCoreClock
    lib_wdt.o(i.IWDT_Init) refers to aeabi_sdiv.o(.text) for __aeabi_uidivmod
    lib_wdt.o(i.IWDT_Init) refers to system_es8h018x.o(.data) for SystemCoreClock
    lib_wdt.o(i.WWDT_Init) refers to aeabi_sdiv.o(.text) for __aeabi_uidivmod
    lib_wdt.o(i.WWDT_Init) refers to system_es8h018x.o(.data) for SystemCoreClock
    irqhandler.o(i.SysTick_IRQHandler) refers to systick.o(i.TimingDelay_Decrement) for TimingDelay_Decrement
    irqhandler.o(i.T16N0_IRQHandler) refers to lib_timer.o(i.T16Nx_GetITStatus) for T16Nx_GetITStatus
    irqhandler.o(i.T16N0_IRQHandler) refers to lib_timer.o(i.T16Nx_ClearIFPendingBit) for T16Nx_ClearIFPendingBit
    irqhandler.o(i.T16N0_IRQHandler) refers to function.o(i.App_Event_10ms) for App_Event_10ms
    irqhandler.o(i.T16N0_IRQHandler) refers to function.o(i.App_Event_100ms) for App_Event_100ms
    irqhandler.o(i.T16N0_IRQHandler) refers to main.o(.data) for Sys
    irqhandler.o(i.T16N0_IRQHandler) refers to eep24c02.o(.bss) for EEP
    irqhandler.o(i.UART0_IRQHandler) refers to uart.o(i.Uart0_Interrupt) for Uart0_Interrupt
    irqhandler.o(i.UART2_IRQHandler) refers to uart.o(i.Uart3_Interrupt_lhh) for Uart3_Interrupt_lhh
    irqhandler.o(i.UART4_IRQHandler) refers to uart.o(i.Uart4_Interrupt) for Uart4_Interrupt
    system_es8h018x.o(i.SystemCoreClockUpdate) refers to lib_scu.o(i.SystemClockSelect) for SystemClockSelect
    system_es8h018x.o(i.SystemCoreClockUpdate) refers to lib_scu.o(i.PLLClock_Config) for PLLClock_Config
    system_es8h018x.o(i.SystemCoreClockUpdate) refers to system_es8h018x.o(.data) for SystemCoreClock
    system_es8h018x.o(i.SystemInit) refers to system_es8h018x.o(i.SystemCoreClockUpdate) for SystemCoreClockUpdate
    systick.o(i.Delay100us) refers to systick.o(.data) for TimingDelay
    systick.o(i.Delay1ms) refers to systick.o(i.Delay100us) for Delay100us
    systick.o(i.SysTickInit) refers to aeabi_sdiv.o(.text) for __aeabi_uidivmod
    systick.o(i.SysTickInit) refers to lib_scs.o(i.SysTick_Init) for SysTick_Init
    systick.o(i.SysTickInit) refers to system_es8h018x.o(.data) for SystemCoreClock
    systick.o(i.TimingDelay_Decrement) refers to systick.o(.data) for TimingDelay
    init_es8h018x_ex8h0163.o(i.ConfigIO_Input) refers to lib_gpio.o(i.GPIO_Init) for GPIO_Init
    init_es8h018x_ex8h0163.o(i.ConfigIO_OpenDrainDisable) refers to lib_gpio.o(i.GPIO_SetODERegFromPin) for GPIO_SetODERegFromPin
    init_es8h018x_ex8h0163.o(i.ConfigIO_OpenDrainEnable) refers to lib_gpio.o(i.GPIO_SetODERegFromPin) for GPIO_SetODERegFromPin
    init_es8h018x_ex8h0163.o(i.ConfigIO_Output) refers to lib_gpio.o(i.GPIO_Init) for GPIO_Init
    init_es8h018x_ex8h0163.o(i.ConfigIO_OutputNormal) refers to lib_gpio.o(i.GPIO_SetDSRegFromPin) for GPIO_SetDSRegFromPin
    init_es8h018x_ex8h0163.o(i.ConfigIO_OutputStrong) refers to lib_gpio.o(i.GPIO_SetDSRegFromPin) for GPIO_SetDSRegFromPin
    init_es8h018x_ex8h0163.o(i.ConfigIO_PullDownDisable) refers to lib_gpio.o(i.GPIO_SetPDERegFromPin) for GPIO_SetPDERegFromPin
    init_es8h018x_ex8h0163.o(i.ConfigIO_PullDownEnable) refers to lib_gpio.o(i.GPIO_SetPDERegFromPin) for GPIO_SetPDERegFromPin
    init_es8h018x_ex8h0163.o(i.ConfigIO_PullUpDisable) refers to lib_gpio.o(i.GPIO_SetPUERegFromPin) for GPIO_SetPUERegFromPin
    init_es8h018x_ex8h0163.o(i.ConfigIO_PullUpEnable) refers to lib_gpio.o(i.GPIO_SetPUERegFromPin) for GPIO_SetPUERegFromPin
    init_es8h018x_ex8h0163.o(i.Init_MCU_System) refers to lib_scu.o(i.SystemHRCSelect) for SystemHRCSelect
    init_es8h018x_ex8h0163.o(i.Init_MCU_System) refers to lib_scu.o(i.SystemClockConfig) for SystemClockConfig
    init_es8h018x_ex8h0163.o(i.Init_MCU_System) refers to lib_scu.o(i.DeviceClockAllEnable) for DeviceClockAllEnable
    init_es8h018x_ex8h0163.o(i.Init_MCU_System) refers to systick.o(i.SysTickInit) for SysTickInit
    init_es8h018x_ex8h0163.o(i.Init_MCU_System) refers to init_es8h018x_ex8h0163.o(i.T16NxInit) for T16NxInit
    init_es8h018x_ex8h0163.o(i.PortPin_Read) refers to lib_gpio.o(i.GPIO_Read) for GPIO_Read
    init_es8h018x_ex8h0163.o(i.T16NxInit) refers to lib_timer.o(i.T16Nx_BaseInit) for T16Nx_BaseInit
    init_es8h018x_ex8h0163.o(i.T16NxInit) refers to lib_timer.o(i.T16Nx_SetPREMAT) for T16Nx_SetPREMAT
    init_es8h018x_ex8h0163.o(i.T16NxInit) refers to lib_timer.o(i.T16Nx_SetMAT0) for T16Nx_SetMAT0
    init_es8h018x_ex8h0163.o(i.T16NxInit) refers to lib_scs.o(i.NVIC_Init) for NVIC_Init
    init_es8h018x_ex8h0163.o(i.T16NxInit) refers to lib_timer.o(i.T16Nx_MAT0ITConfig) for T16Nx_MAT0ITConfig
    init_es8h018x_ex8h0163.o(i.T16NxInit) refers to lib_timer.o(i.T16Nx_ITConfig) for T16Nx_ITConfig
    func.o(i.Init_MCU_Gpio) refers to remember.o(i.Init_Pin_WP_Enable) for Init_Pin_WP_Enable
    func.o(i.Init_MCU_Gpio) refers to eep24c02.o(i.Module_Init_IICM) for Module_Init_IICM
    func.o(i.Init_MCU_Gpio) refers to ad.o(i.Module_Init_Ad) for Module_Init_Ad
    func.o(i.Init_MCU_Gpio) refers to switch.o(i.Module_Init_Switch) for Module_Init_Switch
    func.o(i.Init_MCU_Gpio) refers to stepmotor.o(i.Module_Init_StepMotor) for Module_Init_StepMotor
    func.o(i.Init_MCU_Gpio) refers to uart.o(i.Module_Init_Uart) for Module_Init_Uart
    func.o(i.Init_MCU_Gpio) refers to wpmotor.o(i.Init_WPMotor) for Init_WPMotor
    func.o(i.Init_MCU_Gpio) refers to fourway.o(i.Init_FourWay) for Init_FourWay
    func.o(i.Init_MCU_Gpio) refers to uvc.o(i.Init_UVC) for Init_UVC
    func.o(i.Init_MCU_Gpio) refers to lowpower.o(i.Init_LowPower) for Init_LowPower
    func.o(i.Init_MCU_Gpio) refers to eaheater.o(i.Init_EAHeater) for Init_EAHeater
    func.o(i.Init_MCU_Gpio) refers to dcfan.o(i.Init_DCFan) for Init_DCFan
    func.o(i.Init_MCU_Gpio) refers to twifi.o(i.Init_WiFiPowEn) for Init_WiFiPowEn
    func.o(i.Sys_Run_Func1_Per100ms) refers to uart_app.o(i.App_Uart4_Write_Frame) for App_Uart4_Write_Frame
    func.o(i.Sys_Run_Func1_Per100ms) refers to uart_app.o(i.App_Uart4_Read_Frame) for App_Uart4_Read_Frame
    func.o(i.Sys_Run_Func1_Per100ms) refers to func.o(.data) for Uart4TXCount
    func.o(i.Sys_Run_Func1_Per10ms) refers to uart.o(i.Uart0_SendPackDeal) for Uart0_SendPackDeal
    func.o(i.Sys_Run_Func1_Per10ms) refers to uart.o(i.Uart4_SendPackDeal) for Uart4_SendPackDeal
    func.o(i.Sys_Run_Func2_Per100ms) refers to uart_app.o(i.App_Uart0_Write_Frame) for App_Uart0_Write_Frame
    func.o(i.Sys_Run_Func2_Per100ms) refers to uart_app.o(i.App_Uart0_Read_Frame) for App_Uart0_Read_Frame
    func.o(i.Sys_Run_Func2_Per100ms) refers to func.o(.data) for Uart0TXCount
    func.o(i.Sys_Run_Func2_Per10ms) refers to cmdin.o(i.DisplayBoardCommandCheck) for DisplayBoardCommandCheck
    func.o(i.Sys_Run_Func2_Per10ms) refers to cmdout.o(i.DisplayBoardCommandUpdate) for DisplayBoardCommandUpdate
    func.o(i.Sys_Run_Func2_Per10ms) refers to twifi.o(i.App_TCLModule_Master_Info) for App_TCLModule_Master_Info
    func.o(i.Sys_Run_Func2_Per10ms) refers to twifi.o(i.App_TCLModule_Slave_Info) for App_TCLModule_Slave_Info
    func.o(i.Sys_Run_Func3_Per100ms) refers to commmotdrv.o(i.CommMotDrv_InfoCon) for CommMotDrv_InfoCon
    func.o(i.Sys_Run_Func3_Per10ms) refers to ad_app.o(i.App_LookUpTemperature) for App_LookUpTemperature
    func.o(i.Sys_Run_Func3_Per10ms) refers to stepmotor_app.o(i.App_StepMotor_Run) for App_StepMotor_Run
    func.o(i.Sys_Run_Func4_Per10ms) refers to function.o(i.App_Function) for App_Function
    func.o(i.Sys_Run_Func5_Per100ms) refers to remember.o(i.SaveDatToEEP) for SaveDatToEEP
    func.o(i.Sys_Run_Func5_Per100ms) refers to remember.o(i.Remember_EE_Dat_Init) for Remember_EE_Dat_Init
    func.o(i.Sys_Run_Per2ms) refers to ad.o(i.Log_Ad) for Log_Ad
    func.o(i.Sys_Run_Per2ms) refers to switch.o(i.App_Switch) for App_Switch
    func.o(i.Sys_Run_Per2ms) refers to stepmotor.o(i.Log_StepMotor) for Log_StepMotor
    main.o(i.Sys_Run_Event_Per100ms) refers to lib_gpio.o(i.__ARM_common_switch8) for __ARM_common_switch8
    main.o(i.Sys_Run_Event_Per100ms) refers to func.o(i.Sys_Run_Func1_Per100ms) for Sys_Run_Func1_Per100ms
    main.o(i.Sys_Run_Event_Per100ms) refers to func.o(i.Sys_Run_Func2_Per100ms) for Sys_Run_Func2_Per100ms
    main.o(i.Sys_Run_Event_Per100ms) refers to func.o(i.Sys_Run_Func3_Per100ms) for Sys_Run_Func3_Per100ms
    main.o(i.Sys_Run_Event_Per100ms) refers to func.o(i.Sys_Run_Func4_Per100ms) for Sys_Run_Func4_Per100ms
    main.o(i.Sys_Run_Event_Per100ms) refers to func.o(i.Sys_Run_Func5_Per100ms) for Sys_Run_Func5_Per100ms
    main.o(i.Sys_Run_Event_Per100ms) refers to main.o(.data) for Sys
    main.o(i.Sys_Run_Event_Per10ms) refers to lib_gpio.o(i.__ARM_common_switch8) for __ARM_common_switch8
    main.o(i.Sys_Run_Event_Per10ms) refers to func.o(i.Sys_Run_Func1_Per10ms) for Sys_Run_Func1_Per10ms
    main.o(i.Sys_Run_Event_Per10ms) refers to func.o(i.Sys_Run_Func2_Per10ms) for Sys_Run_Func2_Per10ms
    main.o(i.Sys_Run_Event_Per10ms) refers to func.o(i.Sys_Run_Func3_Per10ms) for Sys_Run_Func3_Per10ms
    main.o(i.Sys_Run_Event_Per10ms) refers to func.o(i.Sys_Run_Func4_Per10ms) for Sys_Run_Func4_Per10ms
    main.o(i.Sys_Run_Event_Per10ms) refers to main.o(i.Sys_Run_Event_Per100ms) for Sys_Run_Event_Per100ms
    main.o(i.Sys_Run_Event_Per10ms) refers to main.o(.data) for Sys
    main.o(i.Sys_Run_Event_Per1ms) refers to func.o(i.Sys_Run_Per2ms) for Sys_Run_Per2ms
    main.o(i.Sys_Run_Event_Per1ms) refers to main.o(i.Sys_Run_Event_Per10ms) for Sys_Run_Event_Per10ms
    main.o(i.Sys_Run_Event_Per1ms) refers to main.o(.data) for Sys
    main.o(i.main) refers to func.o(i.Init_MCU_Gpio) for Init_MCU_Gpio
    main.o(i.main) refers to init_es8h018x_ex8h0163.o(i.Init_MCU_System) for Init_MCU_System
    main.o(i.main) refers to uart.o(i.Uart3_Init) for Uart3_Init
    main.o(i.main) refers to main.o(i.Sys_Run_Event_Per1ms) for Sys_Run_Event_Per1ms
    main.o(i.main) refers to uart_app.o(i.app_Rec) for app_Rec
    main.o(i.main) refers to main.o(.data) for Sys
    main.o(i.main) refers to uart.o(.data) for g_rx_finish_flag
    eep24c02.o(i.IICM_Start) refers to lib_gpio.o(i.GPIOA_SetBit) for GPIOA_SetBit
    eep24c02.o(i.IICM_Start) refers to eep24c02.o(i.IICM_Delay) for IICM_Delay
    eep24c02.o(i.IICM_Start) refers to lib_gpio.o(i.GPIOA_ResetBit) for GPIOA_ResetBit
    eep24c02.o(i.IICM_Stop) refers to lib_gpio.o(i.GPIOA_ResetBit) for GPIOA_ResetBit
    eep24c02.o(i.IICM_Stop) refers to eep24c02.o(i.IICM_Delay) for IICM_Delay
    eep24c02.o(i.IICM_Stop) refers to lib_gpio.o(i.GPIOA_SetBit) for GPIOA_SetBit
    eep24c02.o(i.IIC_Read_Byte) refers to init_es8h018x_ex8h0163.o(i.ConfigIO_Input) for ConfigIO_Input
    eep24c02.o(i.IIC_Read_Byte) refers to lib_gpio.o(i.GPIOA_SetBit) for GPIOA_SetBit
    eep24c02.o(i.IIC_Read_Byte) refers to eep24c02.o(i.IICM_Delay) for IICM_Delay
    eep24c02.o(i.IIC_Read_Byte) refers to init_es8h018x_ex8h0163.o(i.PortPin_Read) for PortPin_Read
    eep24c02.o(i.IIC_Read_Byte) refers to lib_gpio.o(i.GPIOA_ResetBit) for GPIOA_ResetBit
    eep24c02.o(i.IIC_Read_Byte) refers to init_es8h018x_ex8h0163.o(i.ConfigIO_Output) for ConfigIO_Output
    eep24c02.o(i.IIC_Send_Byte) refers to lib_gpio.o(i.GPIOA_SetBit) for GPIOA_SetBit
    eep24c02.o(i.IIC_Send_Byte) refers to lib_gpio.o(i.GPIOA_ResetBit) for GPIOA_ResetBit
    eep24c02.o(i.IIC_Send_Byte) refers to eep24c02.o(i.IICM_Delay) for IICM_Delay
    eep24c02.o(i.IIC_SetAck) refers to lib_gpio.o(i.GPIOA_ResetBit) for GPIOA_ResetBit
    eep24c02.o(i.IIC_SetAck) refers to eep24c02.o(i.IICM_Delay) for IICM_Delay
    eep24c02.o(i.IIC_SetAck) refers to lib_gpio.o(i.GPIOA_SetBit) for GPIOA_SetBit
    eep24c02.o(i.IIC_SetNoAck) refers to lib_gpio.o(i.GPIOA_SetBit) for GPIOA_SetBit
    eep24c02.o(i.IIC_SetNoAck) refers to eep24c02.o(i.IICM_Delay) for IICM_Delay
    eep24c02.o(i.IIC_SetNoAck) refers to lib_gpio.o(i.GPIOA_ResetBit) for GPIOA_ResetBit
    eep24c02.o(i.IIC_TestAck) refers to lib_gpio.o(i.GPIOA_SetBit) for GPIOA_SetBit
    eep24c02.o(i.IIC_TestAck) refers to eep24c02.o(i.IICM_Delay) for IICM_Delay
    eep24c02.o(i.IIC_TestAck) refers to init_es8h018x_ex8h0163.o(i.ConfigIO_Input) for ConfigIO_Input
    eep24c02.o(i.IIC_TestAck) refers to init_es8h018x_ex8h0163.o(i.PortPin_Read) for PortPin_Read
    eep24c02.o(i.IIC_TestAck) refers to init_es8h018x_ex8h0163.o(i.ConfigIO_Output) for ConfigIO_Output
    eep24c02.o(i.IIC_TestAck) refers to lib_gpio.o(i.GPIOA_ResetBit) for GPIOA_ResetBit
    eep24c02.o(i.Module_Init_IICM) refers to lib_gpio.o(i.GPIOA_SetBit) for GPIOA_SetBit
    eep24c02.o(i.Module_Init_IICM) refers to init_es8h018x_ex8h0163.o(i.ConfigIO_Output) for ConfigIO_Output
    eep24c02.o(i.Module_Init_IICM) refers to init_es8h018x_ex8h0163.o(i.ConfigIO_PullUpDisable) for ConfigIO_PullUpDisable
    eep24c02.o(i.Module_Init_IICM) refers to eep24c02.o(.bss) for EEP
    eep24c02.o(i.Read_24C02) refers to eep24c02.o(i.IICM_Start) for IICM_Start
    eep24c02.o(i.Read_24C02) refers to eep24c02.o(i.IIC_Send_Byte) for IIC_Send_Byte
    eep24c02.o(i.Read_24C02) refers to eep24c02.o(i.IIC_TestAck) for IIC_TestAck
    eep24c02.o(i.Read_24C02) refers to eep24c02.o(i.IICM_Stop) for IICM_Stop
    eep24c02.o(i.Read_24C02) refers to eep24c02.o(i.IIC_Read_Byte) for IIC_Read_Byte
    eep24c02.o(i.Read_24C02) refers to eep24c02.o(i.IIC_SetAck) for IIC_SetAck
    eep24c02.o(i.Read_24C02) refers to eep24c02.o(i.IIC_SetNoAck) for IIC_SetNoAck
    eep24c02.o(i.Write_24C02) refers to eep24c02.o(i.IICM_Start) for IICM_Start
    eep24c02.o(i.Write_24C02) refers to eep24c02.o(i.IIC_Send_Byte) for IIC_Send_Byte
    eep24c02.o(i.Write_24C02) refers to eep24c02.o(i.IIC_TestAck) for IIC_TestAck
    eep24c02.o(i.Write_24C02) refers to eep24c02.o(i.IICM_Stop) for IICM_Stop
    eep24c02.o(i.Write_24C02) refers to eep24c02.o(.bss) for EEP
    ad.o(i.Log_Ad) refers to lib_adc.o(i.ADC_GetConvStatus) for ADC_GetConvStatus
    ad.o(i.Log_Ad) refers to lib_adc.o(i.ADC_ClearIFStatus) for ADC_ClearIFStatus
    ad.o(i.Log_Ad) refers to lib_adc.o(i.ADC_GetConvValue) for ADC_GetConvValue
    ad.o(i.Log_Ad) refers to ad.o(.bss) for Ad
    ad.o(i.Log_Ad) refers to ad.o(.ARM.__AT_0x00007000) for U8_ad_channel_table
    ad.o(i.Log_Ad) refers to ad_app.o(.bss) for U16_ad_value_12bit_resultOK
    ad.o(i.Module_Init_Ad) refers to lib_gpio.o(i.GPIO_Init) for GPIO_Init
    ad.o(i.Module_Init_Ad) refers to lib_adc.o(i.ADC_Init) for ADC_Init
    ad_app.o(i.App_ADCGetTemperature) refers to aeabi_sdiv.o(.text) for __aeabi_uidivmod
    ad_app.o(i.App_ADCGetTemperature) refers to ad_app.o(.bss) for U16_adbak_value
    ad_app.o(i.App_ADCGetTemperature) refers to ad_app.o(.data) for U8_adtemp_dotvalue
    ad_app.o(i.App_ADCLookupTemperatureTable) refers to rt_memcpy.o(.emb_text) for __aeabi_memcpy4
    ad_app.o(i.App_ADCLookupTemperatureTable) refers to ad_app.o(i.App_AdValueDiffer_Check) for App_AdValueDiffer_Check
    ad_app.o(i.App_ADCLookupTemperatureTable) refers to ad_app.o(i.App_ADCGetTemperature) for App_ADCGetTemperature
    ad_app.o(i.App_ADCLookupTemperatureTable) refers to ad_app.o(.ARM.__AT_0x00007B00) for U16_adc_tempexhaust_table
    ad_app.o(i.App_ADCLookupTemperatureTable) refers to ad_app.o(.bss) for U16_adc_temp_table
    ad_app.o(i.App_ADCLookupTemperatureTable) refers to ad_app.o(.ARM.__AT_0x00007600) for U16_adc_temproom_table
    ad_app.o(i.App_ADCLookupTemperatureTable) refers to ad_app.o(.ARM.__AT_0x00007880) for U16_adc_tempcoil_table
    ad_app.o(i.App_ADCLookupTemperatureTable) refers to ad_app.o(.data) for U8_adtemp_value
    ad_app.o(i.App_AdValueDiffer_Check) refers to ad_app.o(.bss) for U16_adbak_value
    ad_app.o(i.App_LookUpTemperature) refers to ad_app.o(i.App_NTC_Check) for App_NTC_Check
    ad_app.o(i.App_LookUpTemperature) refers to ad_app.o(i.App_ADCLookupTemperatureTable) for App_ADCLookupTemperatureTable
    ad_app.o(i.App_LookUpTemperature) refers to ad_app.o(.data) for U8_adc_channel
    ad_app.o(i.App_LookUpTemperature) refers to tempr.o(.bss) for Tp
    ad_app.o(i.App_NTC_Check) refers to ad_app.o(.data) for f_temp
    ad_app.o(i.App_NTC_Check) refers to ad_app.o(.bss) for U16_ad_value_12bit_resultOK
    switch.o(i.App_Switch) refers to switch.o(i.Drv_Switch_Scan) for Drv_Switch_Scan
    switch.o(i.App_Switch) refers to switch.o(i.Log_Switch_Fd) for Log_Switch_Fd
    switch.o(i.App_Switch) refers to switch.o(.data) for SwitchFlag0
    switch.o(i.Drv_Switch_Scan) refers to init_es8h018x_ex8h0163.o(i.PortPin_Read) for PortPin_Read
    switch.o(i.Drv_Switch_Scan) refers to switch.o(i.Switch_Scan) for Switch_Scan
    switch.o(i.Drv_Switch_Scan) refers to switch.o(.data) for SwitchFlag0
    switch.o(i.Log_Switch_Fd) refers to switch.o(.data) for Switch
    switch.o(i.Module_Init_Switch) refers to lib_gpio.o(i.GPIOB_SetBit) for GPIOB_SetBit
    switch.o(i.Module_Init_Switch) refers to init_es8h018x_ex8h0163.o(i.ConfigIO_Input) for ConfigIO_Input
    switch.o(i.Module_Init_Switch) refers to init_es8h018x_ex8h0163.o(i.ConfigIO_PullUpEnable) for ConfigIO_PullUpEnable
    stepmotor.o(i.Drv_StepMotor) refers to lib_gpio.o(i.GPIOB_SetBit) for GPIOB_SetBit
    stepmotor.o(i.Drv_StepMotor) refers to lib_gpio.o(i.GPIOB_ResetBit) for GPIOB_ResetBit
    stepmotor.o(i.Drv_StepMotor) refers to lib_gpio.o(i.GPIOA_SetBit) for GPIOA_SetBit
    stepmotor.o(i.Drv_StepMotor) refers to lib_gpio.o(i.GPIOA_ResetBit) for GPIOA_ResetBit
    stepmotor.o(i.Drv_StepMotor) refers to stepmotor.o(.data) for StepMotorFlag
    stepmotor.o(i.Log_StepMotor) refers to stepmotor_app.o(i.Case_StepMotor_StepTime) for Case_StepMotor_StepTime
    stepmotor.o(i.Log_StepMotor) refers to stepmotor_app.o(i.Case_StepMotor_Pause) for Case_StepMotor_Pause
    stepmotor.o(i.Log_StepMotor) refers to stepmotor.o(i.Drv_StepMotor) for Drv_StepMotor
    stepmotor.o(i.Log_StepMotor) refers to stepmotor.o(.bss) for StepMotor
    stepmotor.o(i.Log_StepMotor) refers to stepmotor.o(.data) for StepMotorFlag
    stepmotor.o(i.Log_StepMotor) refers to stepmotor.o(.ARM.__AT_0x00008000) for U8_stepmotor_CW_table
    stepmotor.o(i.Log_StepMotor_SweepAuto) refers to stepmotor.o(.data) for StepMotorFlag
    stepmotor.o(i.Log_StepMotor_SweepAuto) refers to stepmotor.o(.bss) for StepMotor
    stepmotor.o(i.Module_Init_StepMotor) refers to lib_gpio.o(i.GPIOB_ResetBit) for GPIOB_ResetBit
    stepmotor.o(i.Module_Init_StepMotor) refers to init_es8h018x_ex8h0163.o(i.ConfigIO_Output) for ConfigIO_Output
    stepmotor.o(i.Module_Init_StepMotor) refers to init_es8h018x_ex8h0163.o(i.ConfigIO_PullUpDisable) for ConfigIO_PullUpDisable
    stepmotor.o(i.Module_Init_StepMotor) refers to lib_gpio.o(i.GPIOA_ResetBit) for GPIOA_ResetBit
    stepmotor_app.o(i.App_StepMotor_Run) refers to lib_gpio.o(i.__ARM_common_switch8) for __ARM_common_switch8
    stepmotor_app.o(i.App_StepMotor_Run) refers to swing.o(i.Swing_Sweep) for Swing_Sweep
    stepmotor_app.o(i.App_StepMotor_Run) refers to swing.o(i.Swing_Con) for Swing_Con
    stepmotor_app.o(i.App_StepMotor_Run) refers to stepmotor.o(.bss) for StepMotor
    stepmotor_app.o(i.App_StepMotor_Run) refers to stepmotor.o(.data) for StepMotorFlag
    stepmotor_app.o(i.App_StepMotor_Run) refers to lowpower.o(.data) for PowEnPTCB
    stepmotor_app.o(i.App_StepMotor_Run) refers to function.o(.data) for SystemMode
    stepmotor_app.o(i.App_StepMotor_Run) refers to swing.o(.bss) for Swing
    stepmotor_app.o(i.Case_StepMotor_Pause) refers to stepmotor.o(.data) for StepMotorFlag
    stepmotor_app.o(i.Case_StepMotor_Pause) refers to stepmotor.o(.bss) for StepMotor
    stepmotor_app.o(i.Case_StepMotor_StepTime) refers to stepmotor.o(.bss) for StepMotor
    swing.o(i.Swing_AntiDew) refers to function.o(.data) for SystemMode
    swing.o(i.Swing_AntiDew) refers to fan.o(.bss) for Fan
    swing.o(i.Swing_AntiDew) refers to tempr.o(.bss) for T1
    swing.o(i.Swing_AntiDew) refers to comp.o(.bss) for Comp
    swing.o(i.Swing_AntiDew) refers to swing.o(.bss) for Swing
    swing.o(i.Swing_AntiDew) refers to stepmotor.o(.bss) for StepMotor
    swing.o(i.Swing_AntiDew) refers to function.o(.bss) for System
    swing.o(i.Swing_AntiDew) refers to protect.o(.bss) for Protect
    swing.o(i.Swing_Con) refers to stepmotor.o(.bss) for StepMotor
    swing.o(i.Swing_Con) refers to lowpower.o(.data) for PowEnPTCB
    swing.o(i.Swing_Con) refers to function.o(.bss) for System
    swing.o(i.Swing_Con) refers to stepmotor.o(.data) for StepMotorFlag
    swing.o(i.Swing_Con) refers to swing.o(.bss) for Swing
    swing.o(i.Swing_Con) refers to fan.o(.bss) for Fan
    swing.o(i.Swing_Sweep) refers to stepmotor.o(i.Log_StepMotor_SweepAuto) for Log_StepMotor_SweepAuto
    swing.o(i.Swing_Sweep) refers to fan.o(.bss) for Fan
    uart.o(i.Module_Init_Uart) refers to uart.o(i.Module_Init_Uart0) for Module_Init_Uart0
    uart.o(i.Module_Init_Uart) refers to uart.o(i.Module_Init_Uart4) for Module_Init_Uart4
    uart.o(i.Module_Init_Uart0) refers to lib_gpio.o(i.GPIOB_SetBit) for GPIOB_SetBit
    uart.o(i.Module_Init_Uart0) refers to init_es8h018x_ex8h0163.o(i.ConfigIO_Output) for ConfigIO_Output
    uart.o(i.Module_Init_Uart0) refers to init_es8h018x_ex8h0163.o(i.ConfigIO_PullUpEnable) for ConfigIO_PullUpEnable
    uart.o(i.Module_Init_Uart0) refers to uart_app.o(i.Uart0_Config) for Uart0_Config
    uart.o(i.Module_Init_Uart4) refers to lib_gpio.o(i.GPIOB_SetBit) for GPIOB_SetBit
    uart.o(i.Module_Init_Uart4) refers to init_es8h018x_ex8h0163.o(i.ConfigIO_Output) for ConfigIO_Output
    uart.o(i.Module_Init_Uart4) refers to init_es8h018x_ex8h0163.o(i.ConfigIO_PullUpEnable) for ConfigIO_PullUpEnable
    uart.o(i.Module_Init_Uart4) refers to uart_app.o(i.Uart4_Config) for Uart4_Config
    uart.o(i.Uart0_Interrupt) refers to lib_uart.o(i.UART_GetITStatus) for UART_GetITStatus
    uart.o(i.Uart0_Interrupt) refers to lib_uart.o(i.UART_GetFlagStatus) for UART_GetFlagStatus
    uart.o(i.Uart0_Interrupt) refers to lib_uart.o(i.UART_RecByte) for UART_RecByte
    uart.o(i.Uart0_Interrupt) refers to lib_uart.o(i.UART_SendByte) for UART_SendByte
    uart.o(i.Uart0_Interrupt) refers to lib_uart.o(i.UART_ITConfig) for UART_ITConfig
    uart.o(i.Uart0_Interrupt) refers to uart.o(.bss) for Uart0
    uart.o(i.Uart0_Interrupt) refers to uart.o(.data) for STRUCT_uart0_flag0
    uart.o(i.Uart0_SendPackDeal) refers to lib_uart.o(i.UART_SendByte) for UART_SendByte
    uart.o(i.Uart0_SendPackDeal) refers to lib_uart.o(i.UART_ITConfig) for UART_ITConfig
    uart.o(i.Uart0_SendPackDeal) refers to uart.o(.data) for STRUCT_uart0_flag0
    uart.o(i.Uart0_SendPackDeal) refers to uart.o(.bss) for Uart0
    uart.o(i.Uart3_Init) refers to uart_app.o(i.Uart3_Config_lhh) for Uart3_Config_lhh
    uart.o(i.Uart3_Init) refers to uart.o(.data) for g_tx_length
    uart.o(i.Uart3_Interrupt_lhh) refers to lib_uart.o(i.UART_GetITStatus) for UART_GetITStatus
    uart.o(i.Uart3_Interrupt_lhh) refers to lib_uart.o(i.UART_GetFlagStatus) for UART_GetFlagStatus
    uart.o(i.Uart3_Interrupt_lhh) refers to lib_uart.o(i.UART_SendByte) for UART_SendByte
    uart.o(i.Uart3_Interrupt_lhh) refers to lib_uart.o(i.UART_ITConfig) for UART_ITConfig
    uart.o(i.Uart3_Interrupt_lhh) refers to lib_uart.o(i.UART_RecByte) for UART_RecByte
    uart.o(i.Uart3_Interrupt_lhh) refers to uart.o(.bss) for g_txbuf
    uart.o(i.Uart3_Interrupt_lhh) refers to uart.o(.data) for g_tx_count
    uart.o(i.Uart4_Interrupt) refers to lib_uart.o(i.UART_GetITStatus) for UART_GetITStatus
    uart.o(i.Uart4_Interrupt) refers to lib_uart.o(i.UART_GetFlagStatus) for UART_GetFlagStatus
    uart.o(i.Uart4_Interrupt) refers to lib_uart.o(i.UART_RecByte) for UART_RecByte
    uart.o(i.Uart4_Interrupt) refers to lib_uart.o(i.UART_SendByte) for UART_SendByte
    uart.o(i.Uart4_Interrupt) refers to lib_uart.o(i.UART_ITConfig) for UART_ITConfig
    uart.o(i.Uart4_Interrupt) refers to uart.o(.bss) for Uart4
    uart.o(i.Uart4_Interrupt) refers to uart.o(.data) for STRUCT_uart4_flag0
    uart.o(i.Uart4_SendPackDeal) refers to lib_uart.o(i.UART_SendByte) for UART_SendByte
    uart.o(i.Uart4_SendPackDeal) refers to lib_uart.o(i.UART_ITConfig) for UART_ITConfig
    uart.o(i.Uart4_SendPackDeal) refers to uart.o(.data) for STRUCT_uart4_flag0
    uart.o(i.Uart4_SendPackDeal) refers to uart.o(.bss) for Uart4
    uart_app.o(i.App_Uart0_Read_Frame) refers to commdisp.o(i.CommDisp_Check8) for CommDisp_Check8
    uart_app.o(i.App_Uart0_Read_Frame) refers to uart.o(.data) for STRUCT_uart0_flag0
    uart_app.o(i.App_Uart0_Read_Frame) refers to uart.o(.bss) for Uart0
    uart_app.o(i.App_Uart0_Read_Frame) refers to commdisp.o(.bss) for CommDisp
    uart_app.o(i.App_Uart0_Write_Frame) refers to commdisp.o(i.CommDisp_Check8) for CommDisp_Check8
    uart_app.o(i.App_Uart0_Write_Frame) refers to uart.o(.bss) for U8_Uart0_AppTxBuf
    uart_app.o(i.App_Uart0_Write_Frame) refers to commdisp.o(.bss) for CommDisp
    uart_app.o(i.App_Uart0_Write_Frame) refers to uart.o(.data) for STRUCT_uart0_flag0
    uart_app.o(i.App_Uart4_Read_Frame) refers to uart.o(.data) for STRUCT_uart4_flag0
    uart_app.o(i.App_Uart4_Read_Frame) refers to uart.o(.bss) for Uart4
    uart_app.o(i.App_Uart4_Read_Frame) refers to commmotdrv.o(.bss) for CommMotDrv
    uart_app.o(i.App_Uart4_Write_Frame) refers to uart.o(.bss) for U8_Uart4_AppTxBuf
    uart_app.o(i.App_Uart4_Write_Frame) refers to commmotdrv.o(.bss) for CommMotDrv
    uart_app.o(i.App_Uart4_Write_Frame) refers to uart_app.o(.bss) for l_contData
    uart_app.o(i.App_Uart4_Write_Frame) refers to uart.o(.data) for STRUCT_uart4_flag0
    uart_app.o(i.F_CRC16) refers to uart.o(.data) for g_crcbuf
    uart_app.o(i.Uart0_Config) refers to lib_gpio.o(i.GPIO_Init) for GPIO_Init
    uart_app.o(i.Uart0_Config) refers to lib_uart.o(i.UART_Init) for UART_Init
    uart_app.o(i.Uart0_Config) refers to lib_uart.o(i.UART_TBIMConfig) for UART_TBIMConfig
    uart_app.o(i.Uart0_Config) refers to lib_uart.o(i.UART_RBIMConfig) for UART_RBIMConfig
    uart_app.o(i.Uart0_Config) refers to lib_uart.o(i.UART_ITConfig) for UART_ITConfig
    uart_app.o(i.Uart0_Config) refers to lib_scs.o(i.NVIC_Init) for NVIC_Init
    uart_app.o(i.Uart3_Config_lhh) refers to lib_gpio.o(i.GPIO_Init) for GPIO_Init
    uart_app.o(i.Uart3_Config_lhh) refers to lib_uart.o(i.UART_Init) for UART_Init
    uart_app.o(i.Uart3_Config_lhh) refers to lib_uart.o(i.UART_TBIMConfig) for UART_TBIMConfig
    uart_app.o(i.Uart3_Config_lhh) refers to lib_uart.o(i.UART_RBIMConfig) for UART_RBIMConfig
    uart_app.o(i.Uart3_Config_lhh) refers to lib_uart.o(i.UART_ITConfig) for UART_ITConfig
    uart_app.o(i.Uart3_Config_lhh) refers to lib_scs.o(i.NVIC_Init) for NVIC_Init
    uart_app.o(i.Uart4_Config) refers to lib_gpio.o(i.GPIO_Init) for GPIO_Init
    uart_app.o(i.Uart4_Config) refers to lib_uart.o(i.UART_Init) for UART_Init
    uart_app.o(i.Uart4_Config) refers to lib_uart.o(i.UART_TBIMConfig) for UART_TBIMConfig
    uart_app.o(i.Uart4_Config) refers to lib_uart.o(i.UART_RBIMConfig) for UART_RBIMConfig
    uart_app.o(i.Uart4_Config) refers to lib_uart.o(i.UART_ITConfig) for UART_ITConfig
    uart_app.o(i.Uart4_Config) refers to lib_scs.o(i.NVIC_Init) for NVIC_Init
    uart_app.o(i.app_Rec) refers to uart_app.o(i.F_CRC16) for F_CRC16
    uart_app.o(i.app_Rec) refers to uart_app.o(i.send_Three_Data) for send_Three_Data
    uart_app.o(i.app_Rec) refers to uart_app.o(i.send_OneSix_Data) for send_OneSix_Data
    uart_app.o(i.app_Rec) refers to uart.o(.bss) for g_rxbuf
    uart_app.o(i.app_Rec) refers to uart.o(.data) for g_rx_length
    uart_app.o(i.app_Rec) refers to uart_app.o(.bss) for l_contData
    uart_app.o(i.send_OneSix_Data) refers to uart_app.o(i.F_CRC16) for F_CRC16
    uart_app.o(i.send_OneSix_Data) refers to lib_uart.o(i.UART_ITConfig) for UART_ITConfig
    uart_app.o(i.send_OneSix_Data) refers to uart.o(.bss) for g_txbuf
    uart_app.o(i.send_OneSix_Data) refers to uart.o(.data) for g_crcbuf
    uart_app.o(i.send_Three_Data) refers to commmotdrv.o(i.BaseRunTx_Byte5_InDoorRunMode) for BaseRunTx_Byte5_InDoorRunMode
    uart_app.o(i.send_Three_Data) refers to uart_app.o(i.F_CRC16) for F_CRC16
    uart_app.o(i.send_Three_Data) refers to lib_uart.o(i.UART_ITConfig) for UART_ITConfig
    uart_app.o(i.send_Three_Data) refers to uart.o(.bss) for g_txbuf
    uart_app.o(i.send_Three_Data) refers to commmotdrv.o(.bss) for CommMotDrv
    uart_app.o(i.send_Three_Data) refers to comp.o(.bss) for Comp
    uart_app.o(i.send_Three_Data) refers to fan.o(.bss) for Fan
    uart_app.o(i.send_Three_Data) refers to function.o(.bss) for System
    uart_app.o(i.send_Three_Data) refers to uart.o(.data) for STRUCT_uart0_flag0
    uart_app.o(i.send_Three_Data) refers to tempr.o(.bss) for T1
    uart_app.o(i.send_Three_Data) refers to protect.o(.bss) for Protect
    uart_app.o(i.send_Three_Data) refers to function.o(.data) for SystemMode
    uart_app.o(i.send_Three_Data) refers to commmotdrv.o(.data) for l_outDoorMode
    uart_app.o(i.send_Three_Data) refers to defrost.o(.bss) for Defrost
    function.o(i.App_Event_100ms) refers to timer.o(i.Timer_Run) for Timer_Run
    function.o(i.App_Event_100ms) refers to uvc.o(i.TimerUVC_Run) for TimerUVC_Run
    function.o(i.App_Event_100ms) refers to comp.o(.bss) for Comp
    function.o(i.App_Event_100ms) refers to stepmotor.o(.bss) for StepMotor
    function.o(i.App_Event_100ms) refers to function.o(.bss) for System
    function.o(i.App_Event_100ms) refers to fan.o(.bss) for Fan
    function.o(i.App_Event_100ms) refers to fourway.o(.data) for FourWay
    function.o(i.App_Event_100ms) refers to function.o(.data) for SystemMode
    function.o(i.App_Event_100ms) refers to dcfan.o(.data) for DCFan
    function.o(i.App_Event_100ms) refers to tempr.o(.bss) for Tempr
    function.o(i.App_Event_100ms) refers to swing.o(.bss) for Swing
    function.o(i.App_Event_100ms) refers to defrost.o(.bss) for Defrost
    function.o(i.App_Event_100ms) refers to wpmotor.o(.data) for WPMotor
    function.o(i.App_Function) refers to lowpower.o(i.Func_LowPower) for Func_LowPower
    function.o(i.App_Function) refers to tempr.o(i.Func_Temprature) for Func_Temprature
    function.o(i.App_Function) refers to waterbox.o(i.Func_WaterBox) for Func_WaterBox
    function.o(i.App_Function) refers to protect.o(i.Func_Protect) for Func_Protect
    function.o(i.App_Function) refers to function.o(i.Func_HumiCSetInit) for Func_HumiCSetInit
    function.o(i.App_Function) refers to lib_gpio.o(i.__ARM_common_switch8) for __ARM_common_switch8
    function.o(i.App_Function) refers to function.o(i.App_Status_Init) for App_Status_Init
    function.o(i.App_Function) refers to function.o(i.App_Status_Off) for App_Status_Off
    function.o(i.App_Function) refers to function.o(i.App_Status_On) for App_Status_On
    function.o(i.App_Function) refers to function.o(i.App_Status_BussCheck) for App_Status_BussCheck
    function.o(i.App_Function) refers to function.o(i.App_Status_SelCheck) for App_Status_SelCheck
    function.o(i.App_Function) refers to defrost.o(i.Defrost_Con) for Defrost_Con
    function.o(i.App_Function) refers to wpmotor.o(i.Func_WPMotor) for Func_WPMotor
    function.o(i.App_Function) refers to uvc.o(i.Func_UVC) for Func_UVC
    function.o(i.App_Function) refers to eaheater.o(i.Func_EAHeater) for Func_EAHeater
    function.o(i.App_Function) refers to twifi.o(i.Func_WiFiPowEn) for Func_WiFiPowEn
    function.o(i.App_Function) refers to comp.o(i.Func_Comp) for Func_Comp
    function.o(i.App_Function) refers to fan.o(i.Func_Fan) for Func_Fan
    function.o(i.App_Function) refers to dcfan.o(i.Func_DCFan) for Func_DCFan
    function.o(i.App_Function) refers to fourway.o(i.Func_FourWay) for Func_FourWay
    function.o(i.App_Function) refers to swing.o(i.Swing_AntiDew) for Swing_AntiDew
    function.o(i.App_Function) refers to function.o(.bss) for System
    function.o(i.App_Status_BussCheck) refers to cmdin.o(i.DisplayBoardTurnOff) for DisplayBoardTurnOff
    function.o(i.App_Status_BussCheck) refers to fan.o(.bss) for Fan
    function.o(i.App_Status_BussCheck) refers to function.o(.bss) for System
    function.o(i.App_Status_BussCheck) refers to function.o(.data) for SystemMode
    function.o(i.App_Status_BussCheck) refers to comp.o(.bss) for Comp
    function.o(i.App_Status_BussCheck) refers to fourway.o(.data) for FourWay
    function.o(i.App_Status_BussCheck) refers to wpmotor.o(.data) for WPMotor
    function.o(i.App_Status_BussCheck) refers to eaheater.o(.data) for EAHeater
    function.o(i.App_Status_BussCheck) refers to uvc.o(.data) for UVC
    function.o(i.App_Status_BussCheck) refers to twifi.o(.bss) for WiFi
    function.o(i.App_Status_Init) refers to lib_gpio.o(i.GPIOA_ResetBit) for GPIOA_ResetBit
    function.o(i.App_Status_Init) refers to remember.o(i.Remember_ReadEEFunc) for Remember_ReadEEFunc
    function.o(i.App_Status_Init) refers to remember.o(i.Remember_ReadEEPara) for Remember_ReadEEPara
    function.o(i.App_Status_Init) refers to timer.o(i.TimerPara_Init) for TimerPara_Init
    function.o(i.App_Status_Init) refers to defrost.o(i.Defrost_Init) for Defrost_Init
    function.o(i.App_Status_Init) refers to function.o(.bss) for System
    function.o(i.App_Status_Init) refers to eep24c02.o(.bss) for EEP
    function.o(i.App_Status_Init) refers to comp.o(.bss) for Comp
    function.o(i.App_Status_Init) refers to timer.o(.bss) for Timer
    function.o(i.App_Status_Init) refers to function.o(.data) for SystemMode
    function.o(i.App_Status_Off) refers to tempr.o(.bss) for Tempr
    function.o(i.App_Status_Off) refers to function.o(.data) for SystemMode
    function.o(i.App_Status_Off) refers to comp.o(.bss) for Comp
    function.o(i.App_Status_Off) refers to fan.o(.bss) for Fan
    function.o(i.App_Status_Off) refers to wpmotor.o(.data) for WPMotor
    function.o(i.App_Status_Off) refers to fourway.o(.data) for FourWay
    function.o(i.App_Status_Off) refers to eaheater.o(.data) for EAHeater
    function.o(i.App_Status_Off) refers to uvc.o(.data) for UVC
    function.o(i.App_Status_Off) refers to function.o(.bss) for System
    function.o(i.App_Status_On) refers to tempr.o(i.TempValueMul10) for TempValueMul10
    function.o(i.App_Status_On) refers to eaheater.o(.data) for EAHeater
    function.o(i.App_Status_On) refers to fan.o(.bss) for Fan
    function.o(i.App_Status_On) refers to function.o(.bss) for System
    function.o(i.App_Status_On) refers to function.o(.data) for SystemMode
    function.o(i.App_Status_On) refers to tempr.o(.bss) for T1
    function.o(i.App_Status_On) refers to comp.o(.bss) for Comp
    function.o(i.App_Status_On) refers to wpmotor.o(.data) for WPMotor
    function.o(i.App_Status_On) refers to protect.o(.bss) for Protect
    function.o(i.App_Status_On) refers to fourway.o(.data) for FourWay
    function.o(i.App_Status_On) refers to waterbox.o(.bss) for WaterBox
    function.o(i.App_Status_On) refers to uvc.o(.data) for UVC
    function.o(i.App_Status_On) refers to defrost.o(i.Defrost_Init) for Defrost_Init
    function.o(i.Func_HumiCSetInit) refers to function.o(.bss) for System
    function.o(i.Func_HumiCSetInit) refers to tempr.o(.bss) for Tempr
    remember.o(i.Init_Pin_WP_Enable) refers to lib_gpio.o(i.GPIOA_SetBit) for GPIOA_SetBit
    remember.o(i.Init_Pin_WP_Enable) refers to init_es8h018x_ex8h0163.o(i.ConfigIO_Output) for ConfigIO_Output
    remember.o(i.Init_Pin_WP_Enable) refers to init_es8h018x_ex8h0163.o(i.ConfigIO_PullUpDisable) for ConfigIO_PullUpDisable
    remember.o(i.LowVoltDetect) refers to lib_gpio.o(i.GPIOA_SetBit) for GPIOA_SetBit
    remember.o(i.LowVoltDetect) refers to lib_gpio.o(i.GPIOA_ResetBit) for GPIOA_ResetBit
    remember.o(i.LowVoltDetect) refers to remember.o(i.Remember_WriteEEFunc) for Remember_WriteEEFunc
    remember.o(i.LowVoltDetect) refers to function.o(.bss) for System
    remember.o(i.LowVoltDetect) refers to remember.o(.bss) for Remember
    remember.o(i.LowVoltDetect) refers to tempr.o(.bss) for Tempr
    remember.o(i.LowVoltDetect) refers to fan.o(.bss) for Fan
    remember.o(i.LowVoltDetect) refers to timer.o(.bss) for Timer
    remember.o(i.LowVoltDetect) refers to function.o(.data) for SystemMode
    remember.o(i.LowVoltDetect) refers to uvc.o(.data) for UVC
    remember.o(i.LowVoltDetect) refers to twifi.o(.bss) for WiFi
    remember.o(i.LowVoltDetect) refers to eep24c02.o(.bss) for EEP
    remember.o(i.Remember_ReadEEFunc) refers to remember.o(i.Remember_WriteEEFunc) for Remember_WriteEEFunc
    remember.o(i.Remember_ReadEEFunc) refers to eep24c02.o(.bss) for EEP
    remember.o(i.Remember_ReadEEFunc) refers to remember.o(.bss) for Remember
    remember.o(i.Remember_ReadEEFunc) refers to function.o(.bss) for System
    remember.o(i.Remember_ReadEEFunc) refers to fan.o(.bss) for Fan
    remember.o(i.Remember_ReadEEFunc) refers to tempr.o(.bss) for Tempr
    remember.o(i.Remember_ReadEEFunc) refers to timer.o(.bss) for Timer
    remember.o(i.Remember_ReadEEFunc) refers to function.o(.data) for SystemMode
    remember.o(i.Remember_ReadEEFunc) refers to uvc.o(.data) for UVC
    remember.o(i.Remember_ReadEEFunc) refers to twifi.o(.bss) for WiFi
    remember.o(i.Remember_ReadEEFunc) refers to swing.o(.bss) for Swing
    remember.o(i.Remember_ReadEEPara) refers to eep24c02.o(i.Read_24C02) for Read_24C02
    remember.o(i.Remember_ReadEEPara) refers to remember.o(i.Remember_WriteEEPara) for Remember_WriteEEPara
    remember.o(i.Remember_ReadEEPara) refers to eep24c02.o(.bss) for EEP
    remember.o(i.Remember_WriteEEFunc) refers to eep24c02.o(i.Write_24C02) for Write_24C02
    remember.o(i.Remember_WriteEEFunc) refers to eep24c02.o(i.Read_24C02) for Read_24C02
    remember.o(i.Remember_WriteEEFunc) refers to eep24c02.o(.bss) for EEP
    remember.o(i.Remember_WriteEEFunc) refers to function.o(.bss) for System
    remember.o(i.Remember_WriteEEFunc) refers to fan.o(.bss) for Fan
    remember.o(i.Remember_WriteEEFunc) refers to tempr.o(.bss) for Tempr
    remember.o(i.Remember_WriteEEFunc) refers to timer.o(.bss) for Timer
    remember.o(i.Remember_WriteEEFunc) refers to function.o(.data) for SystemMode
    remember.o(i.Remember_WriteEEFunc) refers to uvc.o(.data) for UVC
    remember.o(i.Remember_WriteEEFunc) refers to twifi.o(.bss) for WiFi
    remember.o(i.Remember_WriteEEFunc) refers to swing.o(.bss) for Swing
    remember.o(i.Remember_WriteEEPara) refers to eep24c02.o(i.Write_24C02) for Write_24C02
    remember.o(i.Remember_WriteEEPara) refers to eep24c02.o(i.Read_24C02) for Read_24C02
    remember.o(i.Remember_WriteEEPara) refers to eep24c02.o(.bss) for EEP
    remember.o(i.SaveDatToEEP) refers to lib_gpio.o(i.GPIOA_ResetBit) for GPIOA_ResetBit
    remember.o(i.SaveDatToEEP) refers to remember.o(i.Remember_WriteEEFunc) for Remember_WriteEEFunc
    remember.o(i.SaveDatToEEP) refers to lib_gpio.o(i.GPIOA_SetBit) for GPIOA_SetBit
    remember.o(i.SaveDatToEEP) refers to tempr.o(.bss) for Tempr
    remember.o(i.SaveDatToEEP) refers to fan.o(.bss) for Fan
    remember.o(i.SaveDatToEEP) refers to timer.o(.bss) for Timer
    remember.o(i.SaveDatToEEP) refers to function.o(.data) for SystemMode
    remember.o(i.SaveDatToEEP) refers to uvc.o(.data) for UVC
    remember.o(i.SaveDatToEEP) refers to twifi.o(.bss) for WiFi
    remember.o(i.SaveDatToEEP) refers to eep24c02.o(.bss) for EEP
    remember.o(i.SaveDatToEEP) refers to function.o(.bss) for System
    remember.o(i.SaveDatToEEP) refers to remember.o(.bss) for Remember
    protect.o(i.Func_Protect) refers to protect.o(i.Protect_Tp) for Protect_Tp
    protect.o(i.Func_Protect) refers to protect.o(i.Protect_T2Cold) for Protect_T2Cold
    protect.o(i.Func_Protect) refers to protect.o(i.Protect_T3Cold) for Protect_T3Cold
    protect.o(i.Func_Protect) refers to protect.o(i.Protect_InFanErr) for Protect_InFanErr
    protect.o(i.Func_Protect) refers to protect.o(.bss) for Protect
    protect.o(i.Func_Protect) refers to commdisp.o(.bss) for CommDisp
    protect.o(i.Func_Protect) refers to function.o(.data) for SystemMode
    protect.o(i.Protect_CompCurr) refers to tempr.o(i.TempValueMul10) for TempValueMul10
    protect.o(i.Protect_CompCurr) refers to protect.o(.bss) for Protect
    protect.o(i.Protect_CompCurr) refers to comp.o(.bss) for Comp
    protect.o(i.Protect_CurrentCold) refers to tempr.o(i.TempValueMul10) for TempValueMul10
    protect.o(i.Protect_CurrentCold) refers to commmotdrv.o(.bss) for CommMotDrv
    protect.o(i.Protect_CurrentCold) refers to tempr.o(.bss) for T4
    protect.o(i.Protect_CurrentCold) refers to function.o(.data) for SystemMode
    protect.o(i.Protect_CurrentCold) refers to protect.o(.bss) for Protect
    protect.o(i.Protect_CurrentCold) refers to comp.o(.bss) for Comp
    protect.o(i.Protect_CurrentHeat) refers to tempr.o(i.TempValueMul10) for TempValueMul10
    protect.o(i.Protect_CurrentHeat) refers to commmotdrv.o(.bss) for CommMotDrv
    protect.o(i.Protect_CurrentHeat) refers to tempr.o(.bss) for T4
    protect.o(i.Protect_CurrentHeat) refers to function.o(.data) for SystemMode
    protect.o(i.Protect_CurrentHeat) refers to protect.o(.bss) for Protect
    protect.o(i.Protect_CurrentHeat) refers to comp.o(.bss) for Comp
    protect.o(i.Protect_InFanErr) refers to fan.o(.bss) for Fan
    protect.o(i.Protect_InFanErr) refers to protect.o(.data) for u16_ErrRunCount
    protect.o(i.Protect_InFanErr) refers to function.o(.bss) for System
    protect.o(i.Protect_T2Cold) refers to tempr.o(i.TempValueMul10) for TempValueMul10
    protect.o(i.Protect_T2Cold) refers to function.o(.data) for SystemMode
    protect.o(i.Protect_T2Cold) refers to protect.o(.bss) for Protect
    protect.o(i.Protect_T2Cold) refers to eep24c02.o(.bss) for EEP
    protect.o(i.Protect_T2Cold) refers to tempr.o(.bss) for T2
    protect.o(i.Protect_T3Cold) refers to tempr.o(i.TempValueMul10) for TempValueMul10
    protect.o(i.Protect_T3Cold) refers to function.o(.data) for SystemMode
    protect.o(i.Protect_T3Cold) refers to protect.o(.bss) for Protect
    protect.o(i.Protect_T3Cold) refers to eep24c02.o(.bss) for EEP
    protect.o(i.Protect_T3Cold) refers to tempr.o(.bss) for T3
    protect.o(i.Protect_Tp) refers to tempr.o(i.TempValueMul10) for TempValueMul10
    protect.o(i.Protect_Tp) refers to protect.o(.bss) for Protect
    protect.o(i.Protect_Tp) refers to eep24c02.o(.bss) for EEP
    protect.o(i.Protect_Tp) refers to tempr.o(.bss) for Tp
    defrost.o(i.Defrost_Con) refers to tempr.o(i.TempValueMul10) for TempValueMul10
    defrost.o(i.Defrost_Con) refers to function.o(.bss) for System
    defrost.o(i.Defrost_Con) refers to defrost.o(.bss) for Defrost
    defrost.o(i.Defrost_Con) refers to function.o(.data) for SystemMode
    defrost.o(i.Defrost_Con) refers to tempr.o(.bss) for T3
    defrost.o(i.Defrost_Con) refers to comp.o(.bss) for Comp
    defrost.o(i.Defrost_Con) refers to eep24c02.o(.bss) for EEP
    defrost.o(i.Defrost_Con) refers to fourway.o(.data) for FourWay
    defrost.o(i.Defrost_Con) refers to fan.o(.bss) for Fan
    defrost.o(i.Defrost_Con) refers to defrost.o(i.Defrost_Init) for Defrost_Init
    defrost.o(i.Defrost_Init) refers to rt_memclr.o(.text) for __aeabi_memclr4
    defrost.o(i.Defrost_Init) refers to defrost.o(.bss) for Defrost
    commmotdrv.o(i.BaseRunTx_Byte10_InDoorProtect1) refers to fan.o(.bss) for Fan
    commmotdrv.o(i.BaseRunTx_Byte10_InDoorProtect1) refers to function.o(.bss) for System
    commmotdrv.o(i.BaseRunTx_Byte10_InDoorProtect1) refers to uart.o(.data) for STRUCT_uart0_flag0
    commmotdrv.o(i.BaseRunTx_Byte10_InDoorProtect1) refers to tempr.o(.bss) for T1
    commmotdrv.o(i.BaseRunTx_Byte11_InDoorProtect2) refers to protect.o(.bss) for Protect
    commmotdrv.o(i.BaseRunTx_Byte11_InDoorProtect2) refers to uart.o(.data) for STRUCT_uart0_flag0
    commmotdrv.o(i.BaseRunTx_Byte12_InDoorProtect3) refers to protect.o(.bss) for Protect
    commmotdrv.o(i.BaseRunTx_Byte12_InDoorProtect3) refers to function.o(.bss) for System
    commmotdrv.o(i.BaseRunTx_Byte12_InDoorProtect3) refers to function.o(.data) for SystemMode
    commmotdrv.o(i.BaseRunTx_Byte12_InDoorProtect3) refers to comp.o(.bss) for Comp
    commmotdrv.o(i.BaseRunTx_Byte13_InDoorFanSpeedDiv10) refers to aeabi_sdiv.o(.text) for __aeabi_uidivmod
    commmotdrv.o(i.BaseRunTx_Byte13_InDoorFanSpeedDiv10) refers to fan.o(.bss) for Fan
    commmotdrv.o(i.BaseRunTx_Byte14_TempCoil1) refers to aeabi_sdiv.o(.text) for __aeabi_idivmod
    commmotdrv.o(i.BaseRunTx_Byte14_TempCoil1) refers to tempr.o(.bss) for T2
    commmotdrv.o(i.BaseRunTx_Byte15_TempCoil2) refers to aeabi_sdiv.o(.text) for __aeabi_idivmod
    commmotdrv.o(i.BaseRunTx_Byte15_TempCoil2) refers to tempr.o(.bss) for T3
    commmotdrv.o(i.BaseRunTx_Byte16_TempExhaust) refers to tempr.o(.bss) for Tp
    commmotdrv.o(i.BaseRunTx_Byte17_InDoorStatus) refers to function.o(.bss) for System
    commmotdrv.o(i.BaseRunTx_Byte17_InDoorStatus) refers to fan.o(.bss) for Fan
    commmotdrv.o(i.BaseRunTx_Byte17_InDoorStatus) refers to function.o(.data) for SystemMode
    commmotdrv.o(i.BaseRunTx_Byte17_InDoorStatus) refers to tempr.o(.bss) for Tempr
    commmotdrv.o(i.BaseRunTx_Byte5_InDoorRunMode) refers to function.o(.bss) for System
    commmotdrv.o(i.BaseRunTx_Byte5_InDoorRunMode) refers to function.o(.data) for SystemMode
    commmotdrv.o(i.BaseRunTx_Byte5_InDoorRunMode) refers to defrost.o(.bss) for Defrost
    commmotdrv.o(i.BaseRunTx_Byte6_OutDoorTargetFreq) refers to comp.o(.bss) for Comp
    commmotdrv.o(i.BaseRunTx_Byte7_OutDoorTargetFreqDotMul60) refers to aeabi_sdiv.o(.text) for __aeabi_idivmod
    commmotdrv.o(i.BaseRunTx_Byte7_OutDoorTargetFreqDotMul60) refers to tempr.o(.bss) for T4
    commmotdrv.o(i.BaseRunTx_Byte8_InDoorTempSet) refers to function.o(.bss) for System
    commmotdrv.o(i.BaseRunTx_Byte8_InDoorTempSet) refers to tempr.o(.bss) for Tempr
    commmotdrv.o(i.BaseRunTx_Byte9_InDoorTemp) refers to aeabi_sdiv.o(.text) for __aeabi_idivmod
    commmotdrv.o(i.BaseRunTx_Byte9_InDoorTemp) refers to tempr.o(.bss) for T1
    commmotdrv.o(i.CommMotDrv_BaseRunRx) refers to commmotdrv.o(.bss) for CommMotDrv
    commmotdrv.o(i.CommMotDrv_BaseRunRx) refers to commmotdrv.o(.data) for l_outDoorMode
    commmotdrv.o(i.CommMotDrv_BaseRunRx) refers to comp.o(.bss) for Comp
    commmotdrv.o(i.CommMotDrv_BaseRunRx) refers to fan.o(.bss) for Fan
    commmotdrv.o(i.CommMotDrv_BaseRunRx) refers to function.o(.bss) for System
    commmotdrv.o(i.CommMotDrv_BaseRunRx) refers to uart.o(.data) for g_tx_OutDoorStatus1
    commmotdrv.o(i.CommMotDrv_BaseRunTx) refers to commmotdrv.o(i.BaseRunTx_Byte5_InDoorRunMode) for BaseRunTx_Byte5_InDoorRunMode
    commmotdrv.o(i.CommMotDrv_BaseRunTx) refers to commmotdrv.o(i.BaseRunTx_Byte6_OutDoorTargetFreq) for BaseRunTx_Byte6_OutDoorTargetFreq
    commmotdrv.o(i.CommMotDrv_BaseRunTx) refers to commmotdrv.o(i.BaseRunTx_Byte7_OutDoorTargetFreqDotMul60) for BaseRunTx_Byte7_OutDoorTargetFreqDotMul60
    commmotdrv.o(i.CommMotDrv_BaseRunTx) refers to commmotdrv.o(i.BaseRunTx_Byte8_InDoorTempSet) for BaseRunTx_Byte8_InDoorTempSet
    commmotdrv.o(i.CommMotDrv_BaseRunTx) refers to commmotdrv.o(i.BaseRunTx_Byte9_InDoorTemp) for BaseRunTx_Byte9_InDoorTemp
    commmotdrv.o(i.CommMotDrv_BaseRunTx) refers to commmotdrv.o(i.BaseRunTx_Byte10_InDoorProtect1) for BaseRunTx_Byte10_InDoorProtect1
    commmotdrv.o(i.CommMotDrv_BaseRunTx) refers to commmotdrv.o(i.BaseRunTx_Byte11_InDoorProtect2) for BaseRunTx_Byte11_InDoorProtect2
    commmotdrv.o(i.CommMotDrv_BaseRunTx) refers to commmotdrv.o(i.BaseRunTx_Byte12_InDoorProtect3) for BaseRunTx_Byte12_InDoorProtect3
    commmotdrv.o(i.CommMotDrv_BaseRunTx) refers to commmotdrv.o(i.BaseRunTx_Byte13_InDoorFanSpeedDiv10) for BaseRunTx_Byte13_InDoorFanSpeedDiv10
    commmotdrv.o(i.CommMotDrv_BaseRunTx) refers to commmotdrv.o(i.BaseRunTx_Byte14_TempCoil1) for BaseRunTx_Byte14_TempCoil1
    commmotdrv.o(i.CommMotDrv_BaseRunTx) refers to commmotdrv.o(i.BaseRunTx_Byte15_TempCoil2) for BaseRunTx_Byte15_TempCoil2
    commmotdrv.o(i.CommMotDrv_BaseRunTx) refers to commmotdrv.o(i.BaseRunTx_Byte16_TempExhaust) for BaseRunTx_Byte16_TempExhaust
    commmotdrv.o(i.CommMotDrv_BaseRunTx) refers to commmotdrv.o(i.BaseRunTx_Byte17_InDoorStatus) for BaseRunTx_Byte17_InDoorStatus
    commmotdrv.o(i.CommMotDrv_BaseRunTx) refers to commmotdrv.o(.bss) for CommMotDrv
    commmotdrv.o(i.CommMotDrv_Con) refers to commmotdrv.o(.bss) for CommMotDrv
    commmotdrv.o(i.CommMotDrv_InfoCon) refers to commmotdrv.o(i.CommMotDrv_BaseRunTx) for CommMotDrv_BaseRunTx
    commmotdrv.o(i.CommMotDrv_InfoCon) refers to commmotdrv.o(i.CommMotDrv_ReqSetTx) for CommMotDrv_ReqSetTx
    commmotdrv.o(i.CommMotDrv_InfoCon) refers to commmotdrv.o(i.CommMotDrv_Con) for CommMotDrv_Con
    commmotdrv.o(i.CommMotDrv_InfoCon) refers to commmotdrv.o(i.CommMotDrv_BaseRunRx) for CommMotDrv_BaseRunRx
    commmotdrv.o(i.CommMotDrv_InfoCon) refers to commmotdrv.o(i.CommMotDrv_ReqSetRx) for CommMotDrv_ReqSetRx
    commmotdrv.o(i.CommMotDrv_InfoCon) refers to lowpower.o(.data) for Enum_LowPower
    commmotdrv.o(i.CommMotDrv_InfoCon) refers to uart_app.o(.bss) for l_contData
    commmotdrv.o(i.CommMotDrv_InfoCon) refers to commmotdrv.o(.bss) for CommMotDrv
    commmotdrv.o(i.CommMotDrv_ReqSetRx) refers to commmotdrv.o(.bss) for CommMotDrv
    commmotdrv.o(i.CommMotDrv_ReqSetTx) refers to uart_app.o(.bss) for l_contData
    commmotdrv.o(i.CommMotDrv_ReqSetTx) refers to commmotdrv.o(.bss) for CommMotDrv
    cmdin.o(i.DisplayBoardCommandCheck) refers to cmdin.o(i.DisplayBoard_Byte5_Con) for DisplayBoard_Byte5_Con
    cmdin.o(i.DisplayBoardCommandCheck) refers to cmdin.o(i.DisplayBoard_Byte6_Con) for DisplayBoard_Byte6_Con
    cmdin.o(i.DisplayBoardCommandCheck) refers to cmdin.o(i.DisplayBoard_Byte7_Con) for DisplayBoard_Byte7_Con
    cmdin.o(i.DisplayBoardCommandCheck) refers to cmdin.o(i.DisplayBoard_Byte8_Con) for DisplayBoard_Byte8_Con
    cmdin.o(i.DisplayBoardCommandCheck) refers to cmdin.o(i.DisplayBoard_Byte9_Con) for DisplayBoard_Byte9_Con
    cmdin.o(i.DisplayBoardCommandCheck) refers to cmdin.o(i.DisplayBoard_Byte10_Con) for DisplayBoard_Byte10_Con
    cmdin.o(i.DisplayBoardCommandCheck) refers to cmdin.o(i.DisplayBoard_Byte11_Con) for DisplayBoard_Byte11_Con
    cmdin.o(i.DisplayBoardCommandCheck) refers to cmdin.o(i.DisplayBoard_Byte12_Con) for DisplayBoard_Byte12_Con
    cmdin.o(i.DisplayBoardCommandCheck) refers to cmdin.o(i.DisplayBoard_Byte13_Con) for DisplayBoard_Byte13_Con
    cmdin.o(i.DisplayBoardCommandCheck) refers to cmdin.o(i.DisplayBoard_Byte14_Con) for DisplayBoard_Byte14_Con
    cmdin.o(i.DisplayBoardCommandCheck) refers to cmdin.o(i.DisplayBoard_Byte15_Con) for DisplayBoard_Byte15_Con
    cmdin.o(i.DisplayBoardCommandCheck) refers to commdisp.o(.bss) for CommDisp
    cmdin.o(i.DisplayBoardCommandCheck) refers to cmdin.o(.bss) for CmdInBak
    cmdin.o(i.DisplayBoardCommandCheck) refers to cmdin.o(.data) for U8_CmdChkCount
    cmdin.o(i.DisplayBoardCommandCheck) refers to function.o(.bss) for System
    cmdin.o(i.DisplayBoardCommandCheck) refers to twifi.o(.bss) for WiFi
    cmdin.o(i.DisplayBoardCommandCheck) refers to tempr.o(.bss) for Tempr
    cmdin.o(i.DisplayBoardTurnOff) refers to timer.o(i.TimerPara_Init) for TimerPara_Init
    cmdin.o(i.DisplayBoardTurnOff) refers to function.o(.data) for SystemMode
    cmdin.o(i.DisplayBoardTurnOff) refers to cmdin.o(.bss) for CmdInBak
    cmdin.o(i.DisplayBoardTurnOff) refers to function.o(.bss) for System
    cmdin.o(i.DisplayBoardTurnOff) refers to fan.o(.bss) for Fan
    cmdin.o(i.DisplayBoardTurnOff) refers to commdisp.o(.bss) for CommDisp
    cmdin.o(i.DisplayBoardTurnOff) refers to stepmotor.o(.bss) for StepMotor
    cmdin.o(i.DisplayBoardTurnOff) refers to swing.o(.bss) for Swing
    cmdin.o(i.DisplayBoardTurnOff) refers to uvc.o(.data) for UVC
    cmdin.o(i.DisplayBoardTurnOff) refers to twifi.o(.bss) for WiFi
    cmdin.o(i.DisplayBoardTurnOn) refers to timer.o(i.TimerPara_Init) for TimerPara_Init
    cmdin.o(i.DisplayBoardTurnOn) refers to function.o(.data) for SystemMode
    cmdin.o(i.DisplayBoardTurnOn) refers to fan.o(.bss) for Fan
    cmdin.o(i.DisplayBoardTurnOn) refers to comp.o(.bss) for Comp
    cmdin.o(i.DisplayBoardTurnOn) refers to tempr.o(.bss) for T1
    cmdin.o(i.DisplayBoardTurnOn) refers to twifi.o(.bss) for WiFi
    cmdin.o(i.DisplayBoardTurnOn) refers to function.o(.bss) for System
    cmdin.o(i.DisplayBoard_Byte10_Con) refers to cmdin.o(.bss) for CmdInBak
    cmdin.o(i.DisplayBoard_Byte10_Con) refers to commdisp.o(.bss) for CommDisp
    cmdin.o(i.DisplayBoard_Byte10_Con) refers to tempr.o(.bss) for Tempr
    cmdin.o(i.DisplayBoard_Byte10_Con) refers to twifi.o(.bss) for WiFi
    cmdin.o(i.DisplayBoard_Byte10_Con) refers to function.o(.data) for SystemMode
    cmdin.o(i.DisplayBoard_Byte10_Con) refers to function.o(.bss) for System
    cmdin.o(i.DisplayBoard_Byte11_Con) refers to cmdin.o(.bss) for CmdInBak
    cmdin.o(i.DisplayBoard_Byte11_Con) refers to commdisp.o(.bss) for CommDisp
    cmdin.o(i.DisplayBoard_Byte11_Con) refers to function.o(.bss) for System
    cmdin.o(i.DisplayBoard_Byte11_Con) refers to tempr.o(.bss) for Tempr
    cmdin.o(i.DisplayBoard_Byte11_Con) refers to uvc.o(.data) for UVC
    cmdin.o(i.DisplayBoard_Byte11_Con) refers to twifi.o(.bss) for WiFi
    cmdin.o(i.DisplayBoard_Byte11_Con) refers to function.o(.data) for SystemMode
    cmdin.o(i.DisplayBoard_Byte11_Con) refers to comp.o(.bss) for Comp
    cmdin.o(i.DisplayBoard_Byte11_Con) refers to fan.o(.bss) for Fan
    cmdin.o(i.DisplayBoard_Byte11_Con) refers to swing.o(.bss) for Swing
    cmdin.o(i.DisplayBoard_Byte12_Con) refers to cmdin.o(.bss) for CmdInBak
    cmdin.o(i.DisplayBoard_Byte12_Con) refers to commdisp.o(.bss) for CommDisp
    cmdin.o(i.DisplayBoard_Byte13_Con) refers to cmdin.o(.bss) for CmdInBak
    cmdin.o(i.DisplayBoard_Byte13_Con) refers to commdisp.o(.bss) for CommDisp
    cmdin.o(i.DisplayBoard_Byte13_Con) refers to tempr.o(.bss) for Tempr
    cmdin.o(i.DisplayBoard_Byte14_Con) refers to cmdin.o(.bss) for CmdInBak
    cmdin.o(i.DisplayBoard_Byte14_Con) refers to commdisp.o(.bss) for CommDisp
    cmdin.o(i.DisplayBoard_Byte14_Con) refers to fan.o(.bss) for Fan
    cmdin.o(i.DisplayBoard_Byte15_Con) refers to lib_gpio.o(i.__ARM_common_switch8) for __ARM_common_switch8
    cmdin.o(i.DisplayBoard_Byte15_Con) refers to cmdin.o(.bss) for CmdInBak
    cmdin.o(i.DisplayBoard_Byte15_Con) refers to commdisp.o(.bss) for CommDisp
    cmdin.o(i.DisplayBoard_Byte15_Con) refers to function.o(.data) for SystemMode
    cmdin.o(i.DisplayBoard_Byte15_Con) refers to function.o(.bss) for System
    cmdin.o(i.DisplayBoard_Byte5_Con) refers to lib_gpio.o(i.__ARM_common_switch8) for __ARM_common_switch8
    cmdin.o(i.DisplayBoard_Byte5_Con) refers to cmdin.o(.bss) for CmdInBak
    cmdin.o(i.DisplayBoard_Byte5_Con) refers to commdisp.o(.bss) for CommDisp
    cmdin.o(i.DisplayBoard_Byte5_Con) refers to fan.o(.bss) for Fan
    cmdin.o(i.DisplayBoard_Byte5_Con) refers to function.o(.data) for SystemMode
    cmdin.o(i.DisplayBoard_Byte5_Con) refers to function.o(.bss) for System
    cmdin.o(i.DisplayBoard_Byte5_Con) refers to tempr.o(.bss) for Tempr
    cmdin.o(i.DisplayBoard_Byte6_Con) refers to cmdin.o(i.DisplayBoardTurnOn) for DisplayBoardTurnOn
    cmdin.o(i.DisplayBoard_Byte6_Con) refers to cmdin.o(i.DisplayBoardTurnOff) for DisplayBoardTurnOff
    cmdin.o(i.DisplayBoard_Byte6_Con) refers to cmdin.o(.bss) for CmdInBak
    cmdin.o(i.DisplayBoard_Byte6_Con) refers to commdisp.o(.bss) for CommDisp
    cmdin.o(i.DisplayBoard_Byte6_Con) refers to function.o(.bss) for System
    cmdin.o(i.DisplayBoard_Byte6_Con) refers to tempr.o(.bss) for Tempr
    cmdin.o(i.DisplayBoard_Byte6_Con) refers to fan.o(.bss) for Fan
    cmdin.o(i.DisplayBoard_Byte6_Con) refers to comp.o(.bss) for Comp
    cmdin.o(i.DisplayBoard_Byte6_Con) refers to stepmotor.o(.bss) for StepMotor
    cmdin.o(i.DisplayBoard_Byte6_Con) refers to swing.o(.bss) for Swing
    cmdin.o(i.DisplayBoard_Byte6_Con) refers to uvc.o(.data) for UVC
    cmdin.o(i.DisplayBoard_Byte6_Con) refers to twifi.o(.bss) for WiFi
    cmdin.o(i.DisplayBoard_Byte6_Con) refers to remember.o(.bss) for Remember
    cmdin.o(i.DisplayBoard_Byte6_Con) refers to function.o(.data) for SystemMode
    cmdin.o(i.DisplayBoard_Byte6_Con) refers to timer.o(.bss) for Timer
    cmdin.o(i.DisplayBoard_Byte7_Con) refers to cmdin.o(.bss) for CmdInBak
    cmdin.o(i.DisplayBoard_Byte7_Con) refers to commdisp.o(.bss) for CommDisp
    cmdin.o(i.DisplayBoard_Byte7_Con) refers to tempr.o(.bss) for Tempr
    cmdin.o(i.DisplayBoard_Byte7_Con) refers to function.o(.data) for SystemMode
    cmdin.o(i.DisplayBoard_Byte7_Con) refers to function.o(.bss) for System
    cmdin.o(i.DisplayBoard_Byte8_Con) refers to cmdin.o(.bss) for CmdInBak
    cmdin.o(i.DisplayBoard_Byte8_Con) refers to commdisp.o(.bss) for CommDisp
    cmdin.o(i.DisplayBoard_Byte8_Con) refers to timer.o(.bss) for Timer
    cmdin.o(i.DisplayBoard_Byte8_Con) refers to function.o(.bss) for System
    cmdin.o(i.DisplayBoard_Byte9_Con) refers to cmdin.o(.bss) for CmdInBak
    cmdin.o(i.DisplayBoard_Byte9_Con) refers to commdisp.o(.bss) for CommDisp
    cmdin.o(i.DisplayBoard_Byte9_Con) refers to twifi.o(.bss) for WiFi
    cmdin.o(i.DisplayBoard_Byte9_Con) refers to function.o(.bss) for System
    cmdout.o(i.DisplayBoardCommandUpdate) refers to cmdout.o(i.DisplayBoard_Byte5_Update) for DisplayBoard_Byte5_Update
    cmdout.o(i.DisplayBoardCommandUpdate) refers to cmdout.o(i.DisplayBoard_Byte6_Update) for DisplayBoard_Byte6_Update
    cmdout.o(i.DisplayBoardCommandUpdate) refers to cmdout.o(i.DisplayBoard_Byte7_Update) for DisplayBoard_Byte7_Update
    cmdout.o(i.DisplayBoardCommandUpdate) refers to cmdout.o(i.DisplayBoard_Byte8_Update) for DisplayBoard_Byte8_Update
    cmdout.o(i.DisplayBoardCommandUpdate) refers to cmdout.o(i.DisplayBoard_Byte9_Update) for DisplayBoard_Byte9_Update
    cmdout.o(i.DisplayBoardCommandUpdate) refers to cmdout.o(i.DisplayBoard_Byte10_Update) for DisplayBoard_Byte10_Update
    cmdout.o(i.DisplayBoardCommandUpdate) refers to cmdout.o(i.DisplayBoard_Byte11_Update) for DisplayBoard_Byte11_Update
    cmdout.o(i.DisplayBoardCommandUpdate) refers to cmdout.o(i.DisplayBoard_Byte12_Update) for DisplayBoard_Byte12_Update
    cmdout.o(i.DisplayBoardCommandUpdate) refers to cmdout.o(i.DisplayBoard_Byte13_Update) for DisplayBoard_Byte13_Update
    cmdout.o(i.DisplayBoardCommandUpdate) refers to cmdout.o(i.DisplayBoard_Byte14_Update) for DisplayBoard_Byte14_Update
    cmdout.o(i.DisplayBoardCommandUpdate) refers to cmdout.o(i.DisplayBoard_Byte15_Update) for DisplayBoard_Byte15_Update
    cmdout.o(i.DisplayBoardCommandUpdate) refers to cmdout.o(i.DisplayBoard_Byte16_Update) for DisplayBoard_Byte16_Update
    cmdout.o(i.DisplayBoardCommandUpdate) refers to cmdout.o(i.DisplayBoard_Byte17_Update) for DisplayBoard_Byte17_Update
    cmdout.o(i.DisplayBoardCommandUpdate) refers to cmdout.o(i.DisplayBoard_Byte18_Update) for DisplayBoard_Byte18_Update
    cmdout.o(i.DisplayBoardCommandUpdate) refers to cmdout.o(i.DisplayBoard_Byte19_Update) for DisplayBoard_Byte19_Update
    cmdout.o(i.DisplayBoardCommandUpdate) refers to cmdout.o(i.DisplayBoard_Byte20_Update) for DisplayBoard_Byte20_Update
    cmdout.o(i.DisplayBoardCommandUpdate) refers to cmdout.o(i.DisplayBoard_Byte21_Update) for DisplayBoard_Byte21_Update
    cmdout.o(i.DisplayBoardCommandUpdate) refers to cmdout.o(i.DisplayBoard_Byte22_Update) for DisplayBoard_Byte22_Update
    cmdout.o(i.DisplayBoardCommandUpdate) refers to cmdout.o(i.DisplayBoard_Byte23_Update) for DisplayBoard_Byte23_Update
    cmdout.o(i.DisplayBoardCommandUpdate) refers to cmdout.o(i.DisplayBoard_Byte24_Update) for DisplayBoard_Byte24_Update
    cmdout.o(i.DisplayBoardCommandUpdate) refers to cmdout.o(i.DisplayBoard_Byte25_Update) for DisplayBoard_Byte25_Update
    cmdout.o(i.DisplayBoardCommandUpdate) refers to cmdout.o(i.DisplayBoard_Byte26_Update) for DisplayBoard_Byte26_Update
    cmdout.o(i.DisplayBoardCommandUpdate) refers to cmdout.o(i.DisplayBoard_Byte27_Update) for DisplayBoard_Byte27_Update
    cmdout.o(i.DisplayBoardCommandUpdate) refers to commdisp.o(.bss) for CommDisp
    cmdout.o(i.DisplayBoardCommandUpdate) refers to cmdout.o(.bss) for CmdOutBak
    cmdout.o(i.DisplayBoard_Byte10_Update) refers to commdisp.o(.bss) for CommDisp
    cmdout.o(i.DisplayBoard_Byte10_Update) refers to function.o(.bss) for System
    cmdout.o(i.DisplayBoard_Byte10_Update) refers to twifi.o(.bss) for WiFi
    cmdout.o(i.DisplayBoard_Byte10_Update) refers to cmdout.o(.bss) for CmdOutBak
    cmdout.o(i.DisplayBoard_Byte11_Update) refers to function.o(.bss) for System
    cmdout.o(i.DisplayBoard_Byte11_Update) refers to waterbox.o(.bss) for WaterBox
    cmdout.o(i.DisplayBoard_Byte11_Update) refers to commdisp.o(.bss) for CommDisp
    cmdout.o(i.DisplayBoard_Byte11_Update) refers to fan.o(.bss) for Fan
    cmdout.o(i.DisplayBoard_Byte11_Update) refers to uart.o(.data) for STRUCT_uart0_flag0
    cmdout.o(i.DisplayBoard_Byte11_Update) refers to comp.o(.bss) for Comp
    cmdout.o(i.DisplayBoard_Byte11_Update) refers to protect.o(.bss) for Protect
    cmdout.o(i.DisplayBoard_Byte11_Update) refers to tempr.o(.bss) for Tempr
    cmdout.o(i.DisplayBoard_Byte11_Update) refers to cmdout.o(.bss) for CmdOutBak
    cmdout.o(i.DisplayBoard_Byte12_Update) refers to tempr.o(.bss) for T1
    cmdout.o(i.DisplayBoard_Byte12_Update) refers to commdisp.o(.bss) for CommDisp
    cmdout.o(i.DisplayBoard_Byte12_Update) refers to cmdout.o(.bss) for CmdOutBak
    cmdout.o(i.DisplayBoard_Byte13_Update) refers to tempr.o(.bss) for T2
    cmdout.o(i.DisplayBoard_Byte13_Update) refers to commdisp.o(.bss) for CommDisp
    cmdout.o(i.DisplayBoard_Byte13_Update) refers to cmdout.o(.bss) for CmdOutBak
    cmdout.o(i.DisplayBoard_Byte14_Update) refers to commdisp.o(.bss) for CommDisp
    cmdout.o(i.DisplayBoard_Byte14_Update) refers to cmdout.o(.bss) for CmdOutBak
    cmdout.o(i.DisplayBoard_Byte15_Update) refers to tempr.o(.bss) for Tempr
    cmdout.o(i.DisplayBoard_Byte15_Update) refers to function.o(.data) for SystemMode
    cmdout.o(i.DisplayBoard_Byte15_Update) refers to commdisp.o(.bss) for CommDisp
    cmdout.o(i.DisplayBoard_Byte15_Update) refers to cmdout.o(.bss) for CmdOutBak
    cmdout.o(i.DisplayBoard_Byte16_Update) refers to commdisp.o(.bss) for CommDisp
    cmdout.o(i.DisplayBoard_Byte16_Update) refers to cmdout.o(.bss) for CmdOutBak
    cmdout.o(i.DisplayBoard_Byte17_Update) refers to waterbox.o(.bss) for WaterBox
    cmdout.o(i.DisplayBoard_Byte17_Update) refers to commdisp.o(.bss) for CommDisp
    cmdout.o(i.DisplayBoard_Byte17_Update) refers to twifi.o(.bss) for WiFi
    cmdout.o(i.DisplayBoard_Byte17_Update) refers to cmdout.o(.bss) for CmdOutBak
    cmdout.o(i.DisplayBoard_Byte18_Update) refers to function.o(.data) for SystemMode
    cmdout.o(i.DisplayBoard_Byte18_Update) refers to commdisp.o(.bss) for CommDisp
    cmdout.o(i.DisplayBoard_Byte18_Update) refers to uvc.o(.data) for UVC
    cmdout.o(i.DisplayBoard_Byte18_Update) refers to comp.o(.bss) for Comp
    cmdout.o(i.DisplayBoard_Byte18_Update) refers to cmdout.o(.bss) for CmdOutBak
    cmdout.o(i.DisplayBoard_Byte19_Update) refers to tempr.o(.bss) for Tp
    cmdout.o(i.DisplayBoard_Byte19_Update) refers to commdisp.o(.bss) for CommDisp
    cmdout.o(i.DisplayBoard_Byte19_Update) refers to cmdout.o(.bss) for CmdOutBak
    cmdout.o(i.DisplayBoard_Byte20_Update) refers to aeabi_sdiv.o(.text) for __aeabi_uidivmod
    cmdout.o(i.DisplayBoard_Byte20_Update) refers to comp.o(.bss) for Comp
    cmdout.o(i.DisplayBoard_Byte20_Update) refers to commdisp.o(.bss) for CommDisp
    cmdout.o(i.DisplayBoard_Byte20_Update) refers to cmdout.o(.bss) for CmdOutBak
    cmdout.o(i.DisplayBoard_Byte21_Update) refers to aeabi_sdiv.o(.text) for __aeabi_uidivmod
    cmdout.o(i.DisplayBoard_Byte21_Update) refers to comp.o(.bss) for Comp
    cmdout.o(i.DisplayBoard_Byte21_Update) refers to commdisp.o(.bss) for CommDisp
    cmdout.o(i.DisplayBoard_Byte21_Update) refers to cmdout.o(.bss) for CmdOutBak
    cmdout.o(i.DisplayBoard_Byte22_Update) refers to tempr.o(.bss) for T4
    cmdout.o(i.DisplayBoard_Byte22_Update) refers to commdisp.o(.bss) for CommDisp
    cmdout.o(i.DisplayBoard_Byte22_Update) refers to cmdout.o(.bss) for CmdOutBak
    cmdout.o(i.DisplayBoard_Byte23_Update) refers to tempr.o(.bss) for T3
    cmdout.o(i.DisplayBoard_Byte23_Update) refers to commdisp.o(.bss) for CommDisp
    cmdout.o(i.DisplayBoard_Byte23_Update) refers to cmdout.o(.bss) for CmdOutBak
    cmdout.o(i.DisplayBoard_Byte24_Update) refers to aeabi_sdiv.o(.text) for __aeabi_uidivmod
    cmdout.o(i.DisplayBoard_Byte24_Update) refers to fan.o(.bss) for Fan
    cmdout.o(i.DisplayBoard_Byte24_Update) refers to commdisp.o(.bss) for CommDisp
    cmdout.o(i.DisplayBoard_Byte24_Update) refers to cmdout.o(.bss) for CmdOutBak
    cmdout.o(i.DisplayBoard_Byte25_Update) refers to aeabi_sdiv.o(.text) for __aeabi_uidivmod
    cmdout.o(i.DisplayBoard_Byte25_Update) refers to fan.o(.bss) for Fan
    cmdout.o(i.DisplayBoard_Byte25_Update) refers to commdisp.o(.bss) for CommDisp
    cmdout.o(i.DisplayBoard_Byte25_Update) refers to cmdout.o(.bss) for CmdOutBak
    cmdout.o(i.DisplayBoard_Byte26_Update) refers to comp.o(.bss) for Comp
    cmdout.o(i.DisplayBoard_Byte26_Update) refers to commdisp.o(.bss) for CommDisp
    cmdout.o(i.DisplayBoard_Byte26_Update) refers to cmdout.o(.bss) for CmdOutBak
    cmdout.o(i.DisplayBoard_Byte27_Update) refers to fan.o(.bss) for Fan
    cmdout.o(i.DisplayBoard_Byte27_Update) refers to commdisp.o(.bss) for CommDisp
    cmdout.o(i.DisplayBoard_Byte27_Update) refers to cmdout.o(.bss) for CmdOutBak
    cmdout.o(i.DisplayBoard_Byte5_Update) refers to function.o(.data) for SystemMode
    cmdout.o(i.DisplayBoard_Byte5_Update) refers to fan.o(.bss) for Fan
    cmdout.o(i.DisplayBoard_Byte5_Update) refers to commdisp.o(.bss) for CommDisp
    cmdout.o(i.DisplayBoard_Byte5_Update) refers to function.o(.bss) for System
    cmdout.o(i.DisplayBoard_Byte5_Update) refers to cmdout.o(.bss) for CmdOutBak
    cmdout.o(i.DisplayBoard_Byte6_Update) refers to function.o(.bss) for System
    cmdout.o(i.DisplayBoard_Byte6_Update) refers to commdisp.o(.bss) for CommDisp
    cmdout.o(i.DisplayBoard_Byte6_Update) refers to tempr.o(.bss) for Tempr
    cmdout.o(i.DisplayBoard_Byte6_Update) refers to function.o(.data) for SystemMode
    cmdout.o(i.DisplayBoard_Byte6_Update) refers to timer.o(.bss) for Timer
    cmdout.o(i.DisplayBoard_Byte6_Update) refers to cmdout.o(.bss) for CmdOutBak
    cmdout.o(i.DisplayBoard_Byte7_Update) refers to tempr.o(.bss) for Tempr
    cmdout.o(i.DisplayBoard_Byte7_Update) refers to function.o(.data) for SystemMode
    cmdout.o(i.DisplayBoard_Byte7_Update) refers to twifi.o(.bss) for WiFi
    cmdout.o(i.DisplayBoard_Byte7_Update) refers to commdisp.o(.bss) for CommDisp
    cmdout.o(i.DisplayBoard_Byte7_Update) refers to cmdout.o(.bss) for CmdOutBak
    cmdout.o(i.DisplayBoard_Byte8_Update) refers to aeabi_sdiv.o(.text) for __aeabi_uidivmod
    cmdout.o(i.DisplayBoard_Byte8_Update) refers to timer.o(.bss) for Timer
    cmdout.o(i.DisplayBoard_Byte8_Update) refers to commdisp.o(.bss) for CommDisp
    cmdout.o(i.DisplayBoard_Byte8_Update) refers to cmdout.o(.bss) for CmdOutBak
    cmdout.o(i.DisplayBoard_Byte9_Update) refers to commdisp.o(.bss) for CommDisp
    cmdout.o(i.DisplayBoard_Byte9_Update) refers to comp.o(.bss) for Comp
    cmdout.o(i.DisplayBoard_Byte9_Update) refers to cmdout.o(.bss) for CmdOutBak
    comp.o(i.App_Comp_AntiDew) refers to function.o(.data) for SystemMode
    comp.o(i.App_Comp_AntiDew) refers to comp.o(.bss) for Comp
    comp.o(i.App_Comp_ForceFun) refers to function.o(.data) for SystemMode
    comp.o(i.App_Comp_ForceFun) refers to function.o(.bss) for System
    comp.o(i.App_Comp_ForceFun) refers to comp.o(.bss) for Comp
    comp.o(i.App_Comp_InDoorFan) refers to function.o(.data) for SystemMode
    comp.o(i.App_Comp_InDoorFan) refers to fan.o(.bss) for Fan
    comp.o(i.App_Comp_InDoorFan) refers to eep24c02.o(.bss) for EEP
    comp.o(i.App_Comp_InDoorFan) refers to comp.o(.bss) for Comp
    comp.o(i.App_Comp_InDoorFan) refers to function.o(.bss) for System
    comp.o(i.App_Comp_PerTest) refers to defrost.o(.bss) for Defrost
    comp.o(i.App_Comp_PerTest) refers to function.o(.data) for SystemMode
    comp.o(i.App_Comp_PerTest) refers to tempr.o(.bss) for Tempr
    comp.o(i.App_Comp_PerTest) refers to eep24c02.o(.bss) for EEP
    comp.o(i.App_Comp_PerTest) refers to comp.o(.bss) for Comp
    comp.o(i.App_Comp_ProCon) refers to comp.o(i.App_Comp_T1TSDelta) for App_Comp_T1TSDelta
    comp.o(i.App_Comp_ProCon) refers to comp.o(i.App_Comp_InDoorFan) for App_Comp_InDoorFan
    comp.o(i.App_Comp_ProCon) refers to comp.o(i.App_Comp_T4) for App_Comp_T4
    comp.o(i.App_Comp_ProCon) refers to comp.o(i.App_Comp_T2Heat) for App_Comp_T2Heat
    comp.o(i.App_Comp_ProCon) refers to comp.o(i.App_Comp_Sleep) for App_Comp_Sleep
    comp.o(i.App_Comp_ProCon) refers to comp.o(i.App_Comp_PerTest) for App_Comp_PerTest
    comp.o(i.App_Comp_ProCon) refers to comp.o(i.App_Comp_AntiDew) for App_Comp_AntiDew
    comp.o(i.App_Comp_ProCon) refers to comp.o(i.App_Comp_WatFull) for App_Comp_WatFull
    comp.o(i.App_Comp_ProCon) refers to comp.o(i.App_Comp_ForceFun) for App_Comp_ForceFun
    comp.o(i.App_Comp_ProCon) refers to protect.o(.bss) for Protect
    comp.o(i.App_Comp_ProCon) refers to tempr.o(.bss) for Tempr
    comp.o(i.App_Comp_ProCon) refers to function.o(.data) for SystemMode
    comp.o(i.App_Comp_ProCon) refers to comp.o(.bss) for Comp
    comp.o(i.App_Comp_RunHzInitIndex) refers to tempr.o(i.TempValueMul10) for TempValueMul10
    comp.o(i.App_Comp_RunHzInitIndex) refers to function.o(.bss) for System
    comp.o(i.App_Comp_RunHzInitIndex) refers to tempr.o(.bss) for Tempr
    comp.o(i.App_Comp_RunHzInitIndex) refers to function.o(.data) for SystemMode
    comp.o(i.App_Comp_RunHzInitIndex) refers to defrost.o(.bss) for Defrost
    comp.o(i.App_Comp_RunHzInitIndex) refers to comp.o(.bss) for Comp
    comp.o(i.App_Comp_RunHzInitIndex) refers to eep24c02.o(.bss) for EEP
    comp.o(i.App_Comp_Sleep) refers to defrost.o(.bss) for Defrost
    comp.o(i.App_Comp_Sleep) refers to function.o(.data) for SystemMode
    comp.o(i.App_Comp_Sleep) refers to comp.o(.bss) for Comp
    comp.o(i.App_Comp_T1TSDelta) refers to tempr.o(i.TempValueMul10) for TempValueMul10
    comp.o(i.App_Comp_T1TSDelta) refers to aeabi_sdiv.o(.text) for __aeabi_uidivmod
    comp.o(i.App_Comp_T1TSDelta) refers to function.o(.bss) for System
    comp.o(i.App_Comp_T1TSDelta) refers to tempr.o(.bss) for Tempr
    comp.o(i.App_Comp_T1TSDelta) refers to comp.o(.bss) for Comp
    comp.o(i.App_Comp_T1TSDelta) refers to function.o(.data) for SystemMode
    comp.o(i.App_Comp_T2Heat) refers to function.o(.data) for SystemMode
    comp.o(i.App_Comp_T2Heat) refers to tempr.o(.bss) for T2
    comp.o(i.App_Comp_T2Heat) refers to fan.o(.bss) for Fan
    comp.o(i.App_Comp_T2Heat) refers to eep24c02.o(.bss) for EEP
    comp.o(i.App_Comp_T2Heat) refers to comp.o(.bss) for Comp
    comp.o(i.App_Comp_T4) refers to defrost.o(.bss) for Defrost
    comp.o(i.App_Comp_T4) refers to function.o(.data) for SystemMode
    comp.o(i.App_Comp_T4) refers to tempr.o(.bss) for Tempr
    comp.o(i.App_Comp_T4) refers to eep24c02.o(.bss) for EEP
    comp.o(i.App_Comp_T4) refers to comp.o(.bss) for Comp
    comp.o(i.App_Comp_T4) refers to function.o(.bss) for System
    comp.o(i.App_Comp_T4_OffJudge) refers to function.o(.data) for SystemMode
    comp.o(i.App_Comp_T4_OffJudge) refers to tempr.o(.bss) for Tempr
    comp.o(i.App_Comp_T4_OffJudge) refers to eep24c02.o(.bss) for EEP
    comp.o(i.App_Comp_T4_OffJudge) refers to comp.o(.bss) for Comp
    comp.o(i.App_Comp_T4_OffJudge) refers to function.o(.bss) for System
    comp.o(i.App_Comp_WatFull) refers to waterbox.o(.bss) for WaterBox
    comp.o(i.App_Comp_WatFull) refers to comp.o(.bss) for Comp
    comp.o(i.Drv_Comp) refers to comp.o(i.App_Comp_ProCon) for App_Comp_ProCon
    comp.o(i.Drv_Comp) refers to comp.o(i.App_Comp_T4_OffJudge) for App_Comp_T4_OffJudge
    comp.o(i.Drv_Comp) refers to comp.o(.bss) for Comp
    comp.o(i.Drv_Comp) refers to function.o(.bss) for System
    comp.o(i.Drv_Comp) refers to defrost.o(.bss) for Defrost
    comp.o(i.Drv_Comp) refers to eep24c02.o(.bss) for EEP
    comp.o(i.Drv_Comp) refers to function.o(.data) for SystemMode
    comp.o(i.Drv_Comp) refers to tempr.o(.bss) for Tempr
    comp.o(i.Func_Comp) refers to comp.o(i.Log_Comp) for Log_Comp
    comp.o(i.Func_Comp) refers to comp.o(i.Drv_Comp) for Drv_Comp
    comp.o(i.Func_Comp) refers to comp.o(.bss) for Comp
    comp.o(i.Log_Comp) refers to comp.o(i.App_Comp_RunHzInitIndex) for App_Comp_RunHzInitIndex
    comp.o(i.Log_Comp) refers to tempr.o(i.TempValueMul10) for TempValueMul10
    comp.o(i.Log_Comp) refers to comp.o(.bss) for Comp
    comp.o(i.Log_Comp) refers to protect.o(.bss) for Protect
    comp.o(i.Log_Comp) refers to tempr.o(.bss) for Tempr
    comp.o(i.Log_Comp) refers to function.o(.bss) for System
    comp.o(i.Log_Comp) refers to fan.o(.bss) for Fan
    comp.o(i.Log_Comp) refers to function.o(.data) for SystemMode
    comp.o(i.Log_Comp) refers to fourway.o(.data) for FourWay
    comp.o(i.Log_Comp) refers to defrost.o(.bss) for Defrost
    comp.o(i.Log_Comp) refers to waterbox.o(.bss) for WaterBox
    comp.o(i.Log_Comp) refers to wpmotor.o(.data) for WPMotor
    comp.o(i.Log_Comp) refers to eep24c02.o(.bss) for EEP
    comp.o(i.Log_Comp) refers to dcfan.o(.data) for DCFan
    fan.o(i.App_Fan_InDoor) refers to tempr.o(i.TempValueMul10) for TempValueMul10
    fan.o(i.App_Fan_InDoor) refers to function.o(.bss) for System
    fan.o(i.App_Fan_InDoor) refers to tempr.o(.bss) for Tempr
    fan.o(i.App_Fan_InDoor) refers to function.o(.data) for SystemMode
    fan.o(i.App_Fan_InDoor) refers to defrost.o(.bss) for Defrost
    fan.o(i.App_Fan_InDoor) refers to fan.o(.bss) for Fan
    fan.o(i.App_Fan_InDoor) refers to comp.o(.bss) for Comp
    fan.o(i.App_Fan_InDoor) refers to waterbox.o(.bss) for WaterBox
    fan.o(i.App_Fan_InDoor) refers to lib_gpio.o(i.__ARM_common_switch8) for __ARM_common_switch8
    fan.o(i.App_Fan_InDoor) refers to commdisp.o(.bss) for CommDisp
    fan.o(i.App_Fan_OutDoor) refers to defrost.o(.bss) for Defrost
    fan.o(i.App_Fan_OutDoor) refers to fan.o(.bss) for Fan
    fan.o(i.App_Fan_OutDoor) refers to function.o(.data) for SystemMode
    fan.o(i.App_Fan_OutDoor) refers to waterbox.o(.bss) for WaterBox
    fan.o(i.App_Fan_OutDoor) refers to tempr.o(.bss) for T4
    fan.o(i.App_Fan_OutDoor) refers to comp.o(.bss) for Comp
    fan.o(i.Drv_Fan_InDoor) refers to tempr.o(i.TempValueMul10) for TempValueMul10
    fan.o(i.Drv_Fan_InDoor) refers to fan.o(.bss) for Fan
    fan.o(i.Drv_Fan_InDoor) refers to function.o(.bss) for System
    fan.o(i.Drv_Fan_InDoor) refers to eep24c02.o(.bss) for EEP
    fan.o(i.Drv_Fan_InDoor) refers to function.o(.data) for SystemMode
    fan.o(i.Drv_Fan_InDoor) refers to tempr.o(.bss) for Tempr
    fan.o(i.Func_Fan) refers to fan.o(i.App_Fan_InDoor) for App_Fan_InDoor
    fan.o(i.Func_Fan) refers to fan.o(i.App_Fan_OutDoor) for App_Fan_OutDoor
    fan.o(i.Func_Fan) refers to fan.o(i.Log_Fan_InDoor) for Log_Fan_InDoor
    fan.o(i.Func_Fan) refers to fan.o(i.Log_Fan_OutDoor) for Log_Fan_OutDoor
    fan.o(i.Func_Fan) refers to fan.o(i.Drv_Fan_InDoor) for Drv_Fan_InDoor
    fan.o(i.Func_Fan) refers to fan.o(i.Drv_Fan_OutDoor) for Drv_Fan_OutDoor
    fan.o(i.Log_Fan_InDoor) refers to fan.o(.bss) for Fan
    fan.o(i.Log_Fan_InDoor) refers to stepmotor.o(.bss) for StepMotor
    fan.o(i.Log_Fan_OutDoor) refers to fan.o(.bss) for Fan
    fan.o(i.Log_Fan_OutDoor) refers to function.o(.data) for SystemMode
    fan.o(i.Log_Fan_OutDoor) refers to comp.o(.bss) for Comp
    timer.o(i.TimerPara_Init) refers to timer.o(.bss) for Timer
    timer.o(i.Timer_Run) refers to cmdin.o(i.DisplayBoardTurnOff) for DisplayBoardTurnOff
    timer.o(i.Timer_Run) refers to cmdin.o(i.DisplayBoardTurnOn) for DisplayBoardTurnOn
    timer.o(i.Timer_Run) refers to timer.o(.bss) for Timer
    tempr.o(i.Func_Temprature) refers to tempr.o(i.TempValueCon) for TempValueCon
    tempr.o(i.Func_Temprature) refers to tempr.o(i.TempT1TSDeltaZone) for TempT1TSDeltaZone
    tempr.o(i.Func_Temprature) refers to tempr.o(i.TempT4CoolZone) for TempT4CoolZone
    tempr.o(i.Func_Temprature) refers to tempr.o(i.TempT4HeatZone) for TempT4HeatZone
    tempr.o(i.Func_Temprature) refers to tempr.o(i.TempT2HeatZone) for TempT2HeatZone
    tempr.o(i.TempT1TSDeltaZone) refers to tempr.o(i.TempValueMul10) for TempValueMul10
    tempr.o(i.TempT1TSDeltaZone) refers to comp.o(i.App_Comp_RunHzInitIndex) for App_Comp_RunHzInitIndex
    tempr.o(i.TempT1TSDeltaZone) refers to function.o(.bss) for System
    tempr.o(i.TempT1TSDeltaZone) refers to tempr.o(.bss) for Tempr
    tempr.o(i.TempT1TSDeltaZone) refers to function.o(.data) for SystemMode
    tempr.o(i.TempT2HeatZone) refers to tempr.o(i.TempValueMul10) for TempValueMul10
    tempr.o(i.TempT2HeatZone) refers to function.o(.data) for SystemMode
    tempr.o(i.TempT2HeatZone) refers to fan.o(.bss) for Fan
    tempr.o(i.TempT2HeatZone) refers to eep24c02.o(.bss) for EEP
    tempr.o(i.TempT2HeatZone) refers to tempr.o(.bss) for Tempr
    tempr.o(i.TempT4CoolZone) refers to function.o(.data) for SystemMode
    tempr.o(i.TempT4CoolZone) refers to tempr.o(.bss) for Tempr
    tempr.o(i.TempT4HeatZone) refers to function.o(.data) for SystemMode
    tempr.o(i.TempT4HeatZone) refers to tempr.o(.bss) for Tempr
    tempr.o(i.TempValueCon) refers to tempr.o(i.TempValueMul10) for TempValueMul10
    tempr.o(i.TempValueCon) refers to tempr.o(i.TempValueRounding) for TempValueRounding
    tempr.o(i.TempValueCon) refers to function.o(.bss) for System
    tempr.o(i.TempValueCon) refers to tempr.o(.bss) for T1
    tempr.o(i.TempValueCon) refers to function.o(.data) for SystemMode
    tempr.o(i.TempValueRounding) refers to aeabi_sdiv.o(.text) for __aeabi_idivmod
    waterbox.o(i.Func_WaterBox) refers to waterbox.o(.bss) for WaterBox
    waterbox.o(i.Func_WaterBox) refers to switch.o(.data) for SwitchFlag1
    fourway.o(i.Drv_FourWay) refers to lib_gpio.o(i.GPIOB_SetBit) for GPIOB_SetBit
    fourway.o(i.Drv_FourWay) refers to lib_gpio.o(i.GPIOB_ResetBit) for GPIOB_ResetBit
    fourway.o(i.Drv_FourWay) refers to fourway.o(.data) for FourWay
    fourway.o(i.Func_FourWay) refers to fourway.o(i.Log_FourWay) for Log_FourWay
    fourway.o(i.Func_FourWay) refers to fourway.o(i.Drv_FourWay) for Drv_FourWay
    fourway.o(i.Init_FourWay) refers to lib_gpio.o(i.GPIOB_ResetBit) for GPIOB_ResetBit
    fourway.o(i.Init_FourWay) refers to init_es8h018x_ex8h0163.o(i.ConfigIO_Output) for ConfigIO_Output
    fourway.o(i.Init_FourWay) refers to init_es8h018x_ex8h0163.o(i.ConfigIO_PullUpDisable) for ConfigIO_PullUpDisable
    fourway.o(i.Log_FourWay) refers to uart_app.o(.bss) for l_contData
    fourway.o(i.Log_FourWay) refers to fourway.o(.data) for FourWay
    fourway.o(i.Log_FourWay) refers to lowpower.o(.data) for PowEn12V
    fourway.o(i.Log_FourWay) refers to defrost.o(.bss) for Defrost
    fourway.o(i.Log_FourWay) refers to comp.o(.bss) for Comp
    wpmotor.o(i.Drv_WPMotor) refers to lib_gpio.o(i.GPIOA_SetBit) for GPIOA_SetBit
    wpmotor.o(i.Drv_WPMotor) refers to lib_gpio.o(i.GPIOA_ResetBit) for GPIOA_ResetBit
    wpmotor.o(i.Drv_WPMotor) refers to wpmotor.o(.data) for WPMotor
    wpmotor.o(i.Func_WPMotor) refers to wpmotor.o(i.Log_WPMotor) for Log_WPMotor
    wpmotor.o(i.Func_WPMotor) refers to wpmotor.o(i.Drv_WPMotor) for Drv_WPMotor
    wpmotor.o(i.Init_WPMotor) refers to lib_gpio.o(i.GPIOA_ResetBit) for GPIOA_ResetBit
    wpmotor.o(i.Init_WPMotor) refers to init_es8h018x_ex8h0163.o(i.ConfigIO_Output) for ConfigIO_Output
    wpmotor.o(i.Init_WPMotor) refers to init_es8h018x_ex8h0163.o(i.ConfigIO_PullUpDisable) for ConfigIO_PullUpDisable
    wpmotor.o(i.Log_WPMotor) refers to wpmotor.o(.data) for WPMotor
    wpmotor.o(i.Log_WPMotor) refers to tempr.o(.bss) for T4
    wpmotor.o(i.Log_WPMotor) refers to function.o(.bss) for System
    wpmotor.o(i.Log_WPMotor) refers to comp.o(.bss) for Comp
    uvc.o(i.Drv_UVC) refers to lib_gpio.o(i.GPIOA_SetBit) for GPIOA_SetBit
    uvc.o(i.Drv_UVC) refers to lib_gpio.o(i.GPIOA_ResetBit) for GPIOA_ResetBit
    uvc.o(i.Drv_UVC) refers to uvc.o(.data) for UVC
    uvc.o(i.Func_UVC) refers to uvc.o(i.Log_UVC) for Log_UVC
    uvc.o(i.Func_UVC) refers to uvc.o(i.Drv_UVC) for Drv_UVC
    uvc.o(i.Init_UVC) refers to lib_gpio.o(i.GPIOA_ResetBit) for GPIOA_ResetBit
    uvc.o(i.Init_UVC) refers to init_es8h018x_ex8h0163.o(i.ConfigIO_Output) for ConfigIO_Output
    uvc.o(i.Init_UVC) refers to init_es8h018x_ex8h0163.o(i.ConfigIO_PullUpDisable) for ConfigIO_PullUpDisable
    uvc.o(i.Log_UVC) refers to uvc.o(.data) for UVC
    uvc.o(i.Log_UVC) refers to waterbox.o(.bss) for WaterBox
    uvc.o(i.Log_UVC) refers to function.o(.bss) for System
    uvc.o(i.Log_UVC) refers to fan.o(.bss) for Fan
    uvc.o(i.TimerUVC_Run) refers to uvc.o(.data) for UVC
    lowpower.o(i.Func_LowPower) refers to lowpower.o(.data) for Enum_LowPower
    lowpower.o(i.Func_LowPower) refers to function.o(.bss) for System
    lowpower.o(i.Func_LowPower) refers to comp.o(.bss) for Comp
    lowpower.o(i.Func_LowPower) refers to fan.o(.bss) for Fan
    lowpower.o(i.Func_LowPower) refers to fourway.o(.data) for FourWay
    lowpower.o(i.Func_LowPower) refers to wpmotor.o(.data) for WPMotor
    lowpower.o(i.Func_LowPower) refers to uvc.o(.data) for UVC
    lowpower.o(i.Func_LowPower) refers to eaheater.o(.data) for EAHeater
    lowpower.o(i.Func_LowPower) refers to dcfan.o(.data) for DCFan
    lowpower.o(i.Func_LowPower) refers to uart.o(.bss) for Uart4
    lowpower.o(i.Func_LowPower) refers to uart.o(.data) for STRUCT_uart4_flag0
    lowpower.o(i.Func_LowPower) refers to lib_gpio.o(i.GPIOA_ResetBit) for GPIOA_ResetBit
    lowpower.o(i.Func_LowPower) refers to lib_gpio.o(i.GPIOA_SetBit) for GPIOA_SetBit
    lowpower.o(i.Init_LowPower) refers to lib_gpio.o(i.GPIOA_SetBit) for GPIOA_SetBit
    lowpower.o(i.Init_LowPower) refers to init_es8h018x_ex8h0163.o(i.ConfigIO_Output) for ConfigIO_Output
    lowpower.o(i.Init_LowPower) refers to init_es8h018x_ex8h0163.o(i.ConfigIO_PullUpDisable) for ConfigIO_PullUpDisable
    lowpower.o(i.Init_LowPower) refers to lib_gpio.o(i.GPIOA_ResetBit) for GPIOA_ResetBit
    eaheater.o(i.Func_EAHeater) refers to lib_gpio.o(i.GPIOA_SetBit) for GPIOA_SetBit
    eaheater.o(i.Func_EAHeater) refers to lib_gpio.o(i.GPIOA_ResetBit) for GPIOA_ResetBit
    eaheater.o(i.Func_EAHeater) refers to eaheater.o(.data) for EAHeater
    eaheater.o(i.Func_EAHeater) refers to fan.o(.bss) for Fan
    eaheater.o(i.Init_EAHeater) refers to lib_gpio.o(i.GPIOA_ResetBit) for GPIOA_ResetBit
    eaheater.o(i.Init_EAHeater) refers to init_es8h018x_ex8h0163.o(i.ConfigIO_Output) for ConfigIO_Output
    eaheater.o(i.Init_EAHeater) refers to init_es8h018x_ex8h0163.o(i.ConfigIO_PullUpDisable) for ConfigIO_PullUpDisable
    dcfan.o(i.Func_DCFan) refers to lib_gpio.o(i.GPIOA_SetBit) for GPIOA_SetBit
    dcfan.o(i.Func_DCFan) refers to lib_gpio.o(i.GPIOA_ResetBit) for GPIOA_ResetBit
    dcfan.o(i.Func_DCFan) refers to dcfan.o(.data) for DCFan
    dcfan.o(i.Func_DCFan) refers to comp.o(.bss) for Comp
    dcfan.o(i.Init_DCFan) refers to lib_gpio.o(i.GPIOA_ResetBit) for GPIOA_ResetBit
    dcfan.o(i.Init_DCFan) refers to init_es8h018x_ex8h0163.o(i.ConfigIO_Output) for ConfigIO_Output
    dcfan.o(i.Init_DCFan) refers to init_es8h018x_ex8h0163.o(i.ConfigIO_PullUpDisable) for ConfigIO_PullUpDisable
    twifi.o(i.App_TCLModule_CtoF) refers to lib_gpio.o(i.__ARM_common_switch8) for __ARM_common_switch8
    twifi.o(i.App_TCLModule_CtoF) refers to function.o(.bss) for System
    twifi.o(i.App_TCLModule_Master_Info) refers to cmdin.o(i.DisplayBoardTurnOn) for DisplayBoardTurnOn
    twifi.o(i.App_TCLModule_Master_Info) refers to cmdin.o(i.DisplayBoardTurnOff) for DisplayBoardTurnOff
    twifi.o(i.App_TCLModule_Master_Info) refers to lib_gpio.o(i.__ARM_common_switch8) for __ARM_common_switch8
    twifi.o(i.App_TCLModule_Master_Info) refers to twifi.o(.bss) for WiFi
    twifi.o(i.App_TCLModule_Master_Info) refers to function.o(.bss) for System
    twifi.o(i.App_TCLModule_Master_Info) refers to fan.o(.bss) for Fan
    twifi.o(i.App_TCLModule_Master_Info) refers to commdisp.o(.bss) for CommDisp
    twifi.o(i.App_TCLModule_Master_Info) refers to stepmotor.o(.bss) for StepMotor
    twifi.o(i.App_TCLModule_Master_Info) refers to swing.o(.bss) for Swing
    twifi.o(i.App_TCLModule_Master_Info) refers to uvc.o(.data) for UVC
    twifi.o(i.App_TCLModule_Master_Info) refers to tempr.o(.bss) for Tempr
    twifi.o(i.App_TCLModule_Master_Info) refers to function.o(.data) for SystemMode
    twifi.o(i.App_TCLModule_Master_Info) refers to twifi.o(i.App_TCLModule_CtoF) for App_TCLModule_CtoF
    twifi.o(i.App_TCLModule_Slave_Info) refers to lib_gpio.o(i.__ARM_common_switch8) for __ARM_common_switch8
    twifi.o(i.App_TCLModule_Slave_Info) refers to twifi.o(i.App_TCLModule_Fadd1) for App_TCLModule_Fadd1
    twifi.o(i.App_TCLModule_Slave_Info) refers to aeabi_sdiv.o(.text) for __aeabi_uidivmod
    twifi.o(i.App_TCLModule_Slave_Info) refers to twifi.o(.bss) for WiFi
    twifi.o(i.App_TCLModule_Slave_Info) refers to function.o(.bss) for System
    twifi.o(i.App_TCLModule_Slave_Info) refers to function.o(.data) for SystemMode
    twifi.o(i.App_TCLModule_Slave_Info) refers to tempr.o(.bss) for Tempr
    twifi.o(i.App_TCLModule_Slave_Info) refers to fan.o(.bss) for Fan
    twifi.o(i.App_TCLModule_Slave_Info) refers to twifi.o(.data) for u8_TempFSetBak
    twifi.o(i.App_TCLModule_Slave_Info) refers to timer.o(.bss) for Timer
    twifi.o(i.App_TCLModule_Slave_Info) refers to uart.o(.data) for STRUCT_uart0_flag0
    twifi.o(i.App_TCLModule_Slave_Info) refers to comp.o(.bss) for Comp
    twifi.o(i.App_TCLModule_Slave_Info) refers to fourway.o(.data) for FourWay
    twifi.o(i.App_TCLModule_Slave_Info) refers to commdisp.o(.bss) for CommDisp
    twifi.o(i.App_TCLModule_Slave_Info) refers to protect.o(.bss) for Protect
    twifi.o(i.App_TCLModule_Slave_Info) refers to commmotdrv.o(.bss) for CommMotDrv
    twifi.o(i.App_TCLModule_Slave_Info) refers to waterbox.o(.bss) for WaterBox
    twifi.o(i.App_TCLModule_Slave_Info) refers to defrost.o(.bss) for Defrost
    twifi.o(i.App_TCLModule_Slave_Info) refers to wpmotor.o(.data) for WPMotor
    twifi.o(i.Func_WiFiPowEn) refers to lib_gpio.o(i.GPIOB_ResetBit) for GPIOB_ResetBit
    twifi.o(i.Func_WiFiPowEn) refers to lib_gpio.o(i.GPIOB_SetBit) for GPIOB_SetBit
    twifi.o(i.Func_WiFiPowEn) refers to twifi.o(.bss) for WiFi
    twifi.o(i.Init_WiFiPowEn) refers to lib_gpio.o(i.GPIOB_SetBit) for GPIOB_SetBit
    twifi.o(i.Init_WiFiPowEn) refers to init_es8h018x_ex8h0163.o(i.ConfigIO_Output) for ConfigIO_Output
    twifi.o(i.Init_WiFiPowEn) refers to init_es8h018x_ex8h0163.o(i.ConfigIO_PullUpDisable) for ConfigIO_PullUpDisable
    rt_memcpy.o(.text) refers to rt_memcpy.o(.emb_text) for __aeabi_memcpy4
    __main.o(!!!main) refers to __rtentry.o(.ARM.Collect$$rtentry$$00000000) for __rt_entry
    ffixui.o(.text) refers (Special) to usenofp.o(x$fpl$usenofp) for __I$use$fp
    fflti.o(.text) refers (Special) to usenofp.o(x$fpl$usenofp) for __I$use$fp
    __rtentry.o(.ARM.Collect$$rtentry$$00000000) refers (Special) to __rtentry2.o(.ARM.Collect$$rtentry$$0000000A) for __rt_entry_li
    __rtentry.o(.ARM.Collect$$rtentry$$00000000) refers (Special) to __rtentry2.o(.ARM.Collect$$rtentry$$0000000D) for __rt_entry_main
    __rtentry.o(.ARM.Collect$$rtentry$$00000000) refers (Special) to __rtentry2.o(.ARM.Collect$$rtentry$$0000000C) for __rt_entry_postli_1
    __rtentry.o(.ARM.Collect$$rtentry$$00000000) refers (Special) to __rtentry2.o(.ARM.Collect$$rtentry$$00000009) for __rt_entry_postsh_1
    __rtentry.o(.ARM.Collect$$rtentry$$00000000) refers (Special) to __rtentry2.o(.ARM.Collect$$rtentry$$00000002) for __rt_entry_presh_1
    __rtentry.o(.ARM.Collect$$rtentry$$00000000) refers (Special) to __rtentry4.o(.ARM.Collect$$rtentry$$00000004) for __rt_entry_sh
    aeabi_idiv0_sigfpe.o(.text) refers to rt_div0.o(.text) for __rt_div0
    __rtentry2.o(.ARM.Collect$$rtentry$$00000008) refers to boardinit2.o(.text) for _platform_post_stackheap_init
    __rtentry2.o(.ARM.Collect$$rtentry$$0000000A) refers to libinit.o(.ARM.Collect$$libinit$$00000000) for __rt_lib_init
    __rtentry2.o(.ARM.Collect$$rtentry$$0000000B) refers to boardinit3.o(.text) for _platform_post_lib_init
    __rtentry2.o(.ARM.Collect$$rtentry$$0000000D) refers to main.o(i.main) for main
    __rtentry2.o(.ARM.Collect$$rtentry$$0000000D) refers to exit.o(.text) for exit
    __rtentry2.o(.ARM.exidx) refers to __rtentry2.o(.ARM.Collect$$rtentry$$00000001) for .ARM.Collect$$rtentry$$00000001
    __rtentry2.o(.ARM.exidx) refers to __rtentry2.o(.ARM.Collect$$rtentry$$00000008) for .ARM.Collect$$rtentry$$00000008
    __rtentry2.o(.ARM.exidx) refers to __rtentry2.o(.ARM.Collect$$rtentry$$0000000A) for .ARM.Collect$$rtentry$$0000000A
    __rtentry2.o(.ARM.exidx) refers to __rtentry2.o(.ARM.Collect$$rtentry$$0000000B) for .ARM.Collect$$rtentry$$0000000B
    __rtentry2.o(.ARM.exidx) refers to __rtentry2.o(.ARM.Collect$$rtentry$$0000000D) for .ARM.Collect$$rtentry$$0000000D
    __rtentry4.o(.ARM.Collect$$rtentry$$00000004) refers to sys_stackheap_outer.o(.text) for __user_setup_stackheap
    __rtentry4.o(.ARM.exidx) refers to __rtentry4.o(.ARM.Collect$$rtentry$$00000004) for .ARM.Collect$$rtentry$$00000004
    rt_div0.o(.text) refers to defsig_fpe_outer.o(.text) for __rt_SIGFPE
    sys_stackheap_outer.o(.text) refers to libspace.o(.text) for __user_perproc_libspace
    sys_stackheap_outer.o(.text) refers to startup_es8h018x.o(.text) for __user_initial_stackheap
    sys_stackheap_outer.o(__vectab_stack_and_reset_area) refers to tempstk.o(.text) for __temporary_stack_top
    sys_stackheap_outer.o(__vectab_stack_and_reset_area) refers to __main.o(!!!main) for __main
    exit.o(.text) refers to rtexit.o(.ARM.Collect$$rtexit$$00000000) for __rt_exit
    defsig_fpe_outer.o(.text) refers to defsig_fpe_inner.o(.text) for __rt_SIGFPE_inner
    defsig_fpe_outer.o(.text) refers to defsig_exit.o(.text) for __sig_exit
    defsig_fpe_formal.o(.text) refers to rt_raise.o(.text) for __rt_raise
    libinit.o(.ARM.Collect$$libinit$$00000000) refers (Special) to libinit2.o(.ARM.Collect$$libinit$$0000002E) for __rt_lib_init_alloca_1
    libinit.o(.ARM.Collect$$libinit$$00000000) refers (Special) to libinit2.o(.ARM.Collect$$libinit$$0000002C) for __rt_lib_init_argv_1
    libinit.o(.ARM.Collect$$libinit$$00000000) refers (Special) to libinit2.o(.ARM.Collect$$libinit$$0000001B) for __rt_lib_init_atexit_1
    libinit.o(.ARM.Collect$$libinit$$00000000) refers (Special) to libinit2.o(.ARM.Collect$$libinit$$00000021) for __rt_lib_init_clock_1
    libinit.o(.ARM.Collect$$libinit$$00000000) refers (Special) to libinit2.o(.ARM.Collect$$libinit$$00000032) for __rt_lib_init_cpp_1
    libinit.o(.ARM.Collect$$libinit$$00000000) refers (Special) to libinit2.o(.ARM.Collect$$libinit$$00000030) for __rt_lib_init_exceptions_1
    libinit.o(.ARM.Collect$$libinit$$00000000) refers (Special) to libinit2.o(.ARM.Collect$$libinit$$00000002) for __rt_lib_init_fp_1
    libinit.o(.ARM.Collect$$libinit$$00000000) refers (Special) to libinit2.o(.ARM.Collect$$libinit$$0000001F) for __rt_lib_init_fp_trap_1
    libinit.o(.ARM.Collect$$libinit$$00000000) refers (Special) to libinit2.o(.ARM.Collect$$libinit$$00000023) for __rt_lib_init_getenv_1
    libinit.o(.ARM.Collect$$libinit$$00000000) refers (Special) to libinit2.o(.ARM.Collect$$libinit$$0000000A) for __rt_lib_init_heap_1
    libinit.o(.ARM.Collect$$libinit$$00000000) refers (Special) to libinit2.o(.ARM.Collect$$libinit$$00000011) for __rt_lib_init_lc_collate_1
    libinit.o(.ARM.Collect$$libinit$$00000000) refers (Special) to libinit2.o(.ARM.Collect$$libinit$$00000013) for __rt_lib_init_lc_ctype_1
    libinit.o(.ARM.Collect$$libinit$$00000000) refers (Special) to libinit2.o(.ARM.Collect$$libinit$$00000015) for __rt_lib_init_lc_monetary_1
    libinit.o(.ARM.Collect$$libinit$$00000000) refers (Special) to libinit2.o(.ARM.Collect$$libinit$$00000017) for __rt_lib_init_lc_numeric_1
    libinit.o(.ARM.Collect$$libinit$$00000000) refers (Special) to libinit2.o(.ARM.Collect$$libinit$$00000019) for __rt_lib_init_lc_time_1
    libinit.o(.ARM.Collect$$libinit$$00000000) refers (Special) to libinit2.o(.ARM.Collect$$libinit$$00000004) for __rt_lib_init_preinit_1
    libinit.o(.ARM.Collect$$libinit$$00000000) refers (Special) to libinit2.o(.ARM.Collect$$libinit$$0000000E) for __rt_lib_init_rand_1
    libinit.o(.ARM.Collect$$libinit$$00000000) refers (Special) to libinit2.o(.ARM.Collect$$libinit$$00000033) for __rt_lib_init_return
    libinit.o(.ARM.Collect$$libinit$$00000000) refers (Special) to libinit2.o(.ARM.Collect$$libinit$$0000001D) for __rt_lib_init_signal_1
    libinit.o(.ARM.Collect$$libinit$$00000000) refers (Special) to libinit2.o(.ARM.Collect$$libinit$$00000025) for __rt_lib_init_stdio_1
    libinit.o(.ARM.Collect$$libinit$$00000000) refers (Special) to libinit2.o(.ARM.Collect$$libinit$$0000000C) for __rt_lib_init_user_alloc_1
    libspace.o(.text) refers to libspace.o(.bss) for __libspace_start
    rtexit.o(.ARM.Collect$$rtexit$$00000000) refers (Special) to rtexit2.o(.ARM.Collect$$rtexit$$00000004) for __rt_exit_exit
    rtexit.o(.ARM.Collect$$rtexit$$00000000) refers (Special) to rtexit2.o(.ARM.Collect$$rtexit$$00000003) for __rt_exit_ls
    rtexit.o(.ARM.Collect$$rtexit$$00000000) refers (Special) to rtexit2.o(.ARM.Collect$$rtexit$$00000002) for __rt_exit_prels_1
    rtexit.o(.ARM.exidx) refers (Special) to rtexit2.o(.ARM.Collect$$rtexit$$00000004) for __rt_exit_exit
    rtexit.o(.ARM.exidx) refers (Special) to rtexit2.o(.ARM.Collect$$rtexit$$00000003) for __rt_exit_ls
    rtexit.o(.ARM.exidx) refers (Special) to rtexit2.o(.ARM.Collect$$rtexit$$00000002) for __rt_exit_prels_1
    rtexit.o(.ARM.exidx) refers to rtexit.o(.ARM.Collect$$rtexit$$00000000) for .ARM.Collect$$rtexit$$00000000
    rt_raise.o(.text) refers to __raise.o(.text) for __raise
    rt_raise.o(.text) refers to sys_exit.o(.text) for _sys_exit
    defsig_exit.o(.text) refers to sys_exit.o(.text) for _sys_exit
    defsig_fpe_inner.o(.text) refers to defsig_general.o(.text) for __default_signal_display
    libinit2.o(.ARM.Collect$$libinit$$00000010) refers to libinit2.o(.ARM.Collect$$libinit$$0000000F) for .ARM.Collect$$libinit$$0000000F
    libinit2.o(.ARM.Collect$$libinit$$00000012) refers to libinit2.o(.ARM.Collect$$libinit$$0000000F) for .ARM.Collect$$libinit$$0000000F
    libinit2.o(.ARM.Collect$$libinit$$00000014) refers to libinit2.o(.ARM.Collect$$libinit$$0000000F) for .ARM.Collect$$libinit$$0000000F
    libinit2.o(.ARM.Collect$$libinit$$00000016) refers to libinit2.o(.ARM.Collect$$libinit$$0000000F) for .ARM.Collect$$libinit$$0000000F
    libinit2.o(.ARM.Collect$$libinit$$00000018) refers to libinit2.o(.ARM.Collect$$libinit$$0000000F) for .ARM.Collect$$libinit$$0000000F
    libinit2.o(.ARM.Collect$$libinit$$00000026) refers to argv_veneer.o(.text) for __ARM_argv_veneer
    libinit2.o(.ARM.Collect$$libinit$$00000027) refers to argv_veneer.o(.text) for __ARM_argv_veneer
    sys_exit.o(.text) refers (Special) to use_no_semi.o(.text) for __I$use$semihosting
    sys_exit.o(.text) refers (Special) to indicate_semi.o(.text) for __semihosting_library_function
    rtexit2.o(.ARM.Collect$$rtexit$$00000003) refers to libshutdown.o(.ARM.Collect$$libshutdown$$00000000) for __rt_lib_shutdown
    rtexit2.o(.ARM.Collect$$rtexit$$00000004) refers to sys_exit.o(.text) for _sys_exit
    rtexit2.o(.ARM.exidx) refers to rtexit2.o(.ARM.Collect$$rtexit$$00000001) for .ARM.Collect$$rtexit$$00000001
    rtexit2.o(.ARM.exidx) refers to rtexit2.o(.ARM.Collect$$rtexit$$00000003) for .ARM.Collect$$rtexit$$00000003
    rtexit2.o(.ARM.exidx) refers to rtexit2.o(.ARM.Collect$$rtexit$$00000004) for .ARM.Collect$$rtexit$$00000004
    __raise.o(.text) refers to defsig.o(CL$$defsig) for __default_signal_handler
    defsig_general.o(.text) refers to sys_wrch.o(.text) for _ttywrch
    sys_wrch.o(.text) refers (Special) to use_no_semi.o(.text) for __I$use$semihosting
    sys_wrch.o(.text) refers (Special) to indicate_semi.o(.text) for __semihosting_library_function
    defsig.o(CL$$defsig) refers to defsig_fpe_inner.o(.text) for __rt_SIGFPE_inner
    defsig.o(CL$$defsig) refers to defsig_rtmem_inner.o(.text) for __rt_SIGRTMEM_inner
    _get_argv_nomalloc.o(.text) refers (Special) to hrguard.o(.text) for __heap_region$guard
    _get_argv_nomalloc.o(.text) refers to defsig_rtmem_outer.o(.text) for __rt_SIGRTMEM
    _get_argv_nomalloc.o(.text) refers to sys_command.o(.text) for _sys_command_string
    libshutdown.o(.ARM.Collect$$libshutdown$$00000000) refers (Special) to libshutdown2.o(.ARM.Collect$$libshutdown$$00000004) for __rt_lib_shutdown_cpp_1
    libshutdown.o(.ARM.Collect$$libshutdown$$00000000) refers (Special) to libshutdown2.o(.ARM.Collect$$libshutdown$$00000002) for __rt_lib_shutdown_fini_1
    libshutdown.o(.ARM.Collect$$libshutdown$$00000000) refers (Special) to libshutdown2.o(.ARM.Collect$$libshutdown$$00000009) for __rt_lib_shutdown_fp_trap_1
    libshutdown.o(.ARM.Collect$$libshutdown$$00000000) refers (Special) to libshutdown2.o(.ARM.Collect$$libshutdown$$00000011) for __rt_lib_shutdown_heap_1
    libshutdown.o(.ARM.Collect$$libshutdown$$00000000) refers (Special) to libshutdown2.o(.ARM.Collect$$libshutdown$$00000012) for __rt_lib_shutdown_return
    libshutdown.o(.ARM.Collect$$libshutdown$$00000000) refers (Special) to libshutdown2.o(.ARM.Collect$$libshutdown$$0000000C) for __rt_lib_shutdown_signal_1
    libshutdown.o(.ARM.Collect$$libshutdown$$00000000) refers (Special) to libshutdown2.o(.ARM.Collect$$libshutdown$$00000006) for __rt_lib_shutdown_stdio_1
    libshutdown.o(.ARM.Collect$$libshutdown$$00000000) refers (Special) to libshutdown2.o(.ARM.Collect$$libshutdown$$0000000E) for __rt_lib_shutdown_user_alloc_1
    sys_command.o(.text) refers (Special) to use_no_semi.o(.text) for __I$use$semihosting
    sys_command.o(.text) refers (Special) to indicate_semi.o(.text) for __semihosting_library_function
    defsig_abrt_inner.o(.text) refers to defsig_general.o(.text) for __default_signal_display
    defsig_rtred_inner.o(.text) refers to defsig_general.o(.text) for __default_signal_display
    defsig_rtmem_inner.o(.text) refers to defsig_general.o(.text) for __default_signal_display
    defsig_rtmem_outer.o(.text) refers to defsig_rtmem_inner.o(.text) for __rt_SIGRTMEM_inner
    defsig_rtmem_outer.o(.text) refers to defsig_exit.o(.text) for __sig_exit
    defsig_rtmem_formal.o(.text) refers to rt_raise.o(.text) for __rt_raise
    defsig_stak_inner.o(.text) refers to defsig_general.o(.text) for __default_signal_display
    defsig_pvfn_inner.o(.text) refers to defsig_general.o(.text) for __default_signal_display
    defsig_cppl_inner.o(.text) refers to defsig_general.o(.text) for __default_signal_display
    defsig_segv_inner.o(.text) refers to defsig_general.o(.text) for __default_signal_display
    defsig_other.o(.text) refers to defsig_general.o(.text) for __default_signal_display


==============================================================================

Removing Unused input sections from the image.

    Removing lib_adc.o(.rev16_text), (4 bytes).
    Removing lib_adc.o(.revsh_text), (4 bytes).
    Removing lib_adc.o(i.ADC_ACPConfig), (308 bytes).
    Removing lib_adc.o(i.ADC_GetACPMaxValue), (96 bytes).
    Removing lib_adc.o(i.ADC_GetACPMeanValue), (96 bytes).
    Removing lib_adc.o(i.ADC_GetACPMinValue), (96 bytes).
    Removing lib_adc.o(i.ADC_GetFlagStatus), (28 bytes).
    Removing lib_adc.o(i.ADC_GetITStatus), (28 bytes).
    Removing lib_adc.o(i.ADC_Reset), (48 bytes).
    Removing lib_adc.o(i.ADC_Set_CH), (24 bytes).
    Removing lib_adc.o(i.ADC_SoftStart), (40 bytes).
    Removing lib_adc.o(i.ADC_SoftStop), (40 bytes).
    Removing lib_crc.o(.rev16_text), (4 bytes).
    Removing lib_crc.o(.revsh_text), (4 bytes).
    Removing lib_crc.o(i.CRC_ClearCRCStatus), (40 bytes).
    Removing lib_crc.o(i.CRC_GetCRCStatus), (52 bytes).
    Removing lib_crc.o(i.CRC_GetData), (32 bytes).
    Removing lib_crc.o(i.CRC_Init), (348 bytes).
    Removing lib_crc.o(i.CRC_Trig), (36 bytes).
    Removing lib_crc.o(i.CRC_WriteData), (36 bytes).
    Removing lib_gpio.o(.rev16_text), (4 bytes).
    Removing lib_gpio.o(.revsh_text), (4 bytes).
    Removing lib_gpio.o(i.BUZC_Frequence), (100 bytes).
    Removing lib_gpio.o(i.GPIOA_ToggleBit), (16 bytes).
    Removing lib_gpio.o(i.GPIOB_ToggleBit), (16 bytes).
    Removing lib_gpio.o(i.GPIO_ReadBit), (64 bytes).
    Removing lib_gpio.o(i.GPIO_TX0Config), (136 bytes).
    Removing lib_gpio.o(i.GPIO_TX1Config), (164 bytes).
    Removing lib_gpio.o(i.GPIO_TX2Config), (164 bytes).
    Removing lib_gpio.o(i.GPIO_TX3Config), (164 bytes).
    Removing lib_gpio.o(i.GPIO_Write), (28 bytes).
    Removing lib_gpio.o(i.KINT_ClearITPendingBit), (12 bytes).
    Removing lib_gpio.o(i.KINT_Config), (136 bytes).
    Removing lib_gpio.o(i.KINT_GetITFlag), (28 bytes).
    Removing lib_gpio.o(i.KINT_GetITStatus), (28 bytes).
    Removing lib_gpio.o(i.PINT_ClearITPendingBit), (12 bytes).
    Removing lib_gpio.o(i.PINT_Config), (136 bytes).
    Removing lib_gpio.o(i.PINT_GetITFlag), (28 bytes).
    Removing lib_gpio.o(i.PINT_GetITStatus), (28 bytes).
    Removing lib_iap.o(.rev16_text), (4 bytes).
    Removing lib_iap.o(.revsh_text), (4 bytes).
    Removing lib_iap.o(i.IAPRead), (46 bytes).
    Removing lib_iap.o(i.IAP_Code_PageErase), (30 bytes).
    Removing lib_iap.o(i.IAP_Code_PageProgram), (40 bytes).
    Removing lib_iap.o(i.IAP_Code_WordProgram), (32 bytes).
    Removing lib_iap.o(i.IAP_Data_PageErase), (30 bytes).
    Removing lib_iap.o(i.IAP_Data_PageProgram), (40 bytes).
    Removing lib_iap.o(i.IAP_Data_WordProgram), (32 bytes).
    Removing lib_iap.o(i.IAP_FLASH_Lock), (12 bytes).
    Removing lib_iap.o(i.IAP_FLASH_Unlock), (24 bytes).
    Removing lib_iap.o(i.IAP_INFO_Lock), (12 bytes).
    Removing lib_iap.o(i.IAP_INFO_Unlock), (24 bytes).
    Removing lib_iic.o(.rev16_text), (4 bytes).
    Removing lib_iic.o(.revsh_text), (4 bytes).
    Removing lib_iic.o(i.I2C_AckDelay), (56 bytes).
    Removing lib_iic.o(i.I2C_ClearITPendingBit), (12 bytes).
    Removing lib_iic.o(i.I2C_GetFlagStatus), (28 bytes).
    Removing lib_iic.o(i.I2C_GetITStatus), (24 bytes).
    Removing lib_iic.o(i.I2C_GetRWMode), (28 bytes).
    Removing lib_iic.o(i.I2C_GetTBStatus), (28 bytes).
    Removing lib_iic.o(i.I2C_ITConfig), (32 bytes).
    Removing lib_iic.o(i.I2C_Init), (260 bytes).
    Removing lib_iic.o(i.I2C_RBIMConfig), (32 bytes).
    Removing lib_iic.o(i.I2C_RecByte), (12 bytes).
    Removing lib_iic.o(i.I2C_RecHalfWord), (12 bytes).
    Removing lib_iic.o(i.I2C_RecModeConfig), (28 bytes).
    Removing lib_iic.o(i.I2C_RecWord), (12 bytes).
    Removing lib_iic.o(i.I2C_SendAddress), (60 bytes).
    Removing lib_iic.o(i.I2C_SendByte), (12 bytes).
    Removing lib_iic.o(i.I2C_SendHalfWord), (12 bytes).
    Removing lib_iic.o(i.I2C_SendWord), (12 bytes).
    Removing lib_iic.o(i.I2C_SetAddress), (32 bytes).
    Removing lib_iic.o(i.I2C_TBIMConfig), (32 bytes).
    Removing lib_iic.o(i.I2C_TISConfig), (32 bytes).
    Removing lib_printf.o(.rev16_text), (4 bytes).
    Removing lib_printf.o(.revsh_text), (4 bytes).
    Removing lib_printf.o(i.fputc), (80 bytes).
    Removing lib_scs.o(.rev16_text), (4 bytes).
    Removing lib_scs.o(.revsh_text), (4 bytes).
    Removing lib_scs.o(i.SCB_GetCpuID), (12 bytes).
    Removing lib_scs.o(i.SCB_SystemLPConfig), (32 bytes).
    Removing lib_scu.o(.rev16_text), (4 bytes).
    Removing lib_scu.o(.revsh_text), (4 bytes).
    Removing lib_scu.o(i.DeviceClockAllDisable), (48 bytes).
    Removing lib_scu.o(i.DeviceClockAllEnableButIAP), (56 bytes).
    Removing lib_scu.o(i.SCU_ClearPWRCFlagBit), (28 bytes).
    Removing lib_scu.o(i.SCU_GetLVDFlagStatus), (24 bytes).
    Removing lib_scu.o(i.SCU_GetLVDITStatus), (24 bytes).
    Removing lib_scu.o(i.SCU_GetPWRCFlagStatus), (24 bytes).
    Removing lib_scu.o(i.SCU_GetSysClk), (16 bytes).
    Removing lib_scu.o(i.SCU_MultTimerDisable), (32 bytes).
    Removing lib_scu.o(i.SCU_MultTimerEnable), (32 bytes).
    Removing lib_scu.o(i.SCU_NMISelect), (40 bytes).
    Removing lib_scu.o(i.SCU_OpenXTAL), (56 bytes).
    Removing lib_scu.o(i.SCU_PLLReadyFlag), (28 bytes).
    Removing lib_spi.o(.rev16_text), (4 bytes).
    Removing lib_spi.o(.revsh_text), (4 bytes).
    Removing lib_spi.o(i.SPI_ClearITPendingBit), (12 bytes).
    Removing lib_spi.o(i.SPI_DataFormatConfig), (28 bytes).
    Removing lib_spi.o(i.SPI_GetFlagStatus), (48 bytes).
    Removing lib_spi.o(i.SPI_GetITStatus), (48 bytes).
    Removing lib_spi.o(i.SPI_ITConfig), (32 bytes).
    Removing lib_spi.o(i.SPI_Init), (200 bytes).
    Removing lib_spi.o(i.SPI_RBIMConfig), (32 bytes).
    Removing lib_spi.o(i.SPI_RecByte), (12 bytes).
    Removing lib_spi.o(i.SPI_RecHalfWord), (12 bytes).
    Removing lib_spi.o(i.SPI_RecWord), (12 bytes).
    Removing lib_spi.o(i.SPI_SendByte), (12 bytes).
    Removing lib_spi.o(i.SPI_SendHalfWord), (12 bytes).
    Removing lib_spi.o(i.SPI_SendWord), (12 bytes).
    Removing lib_spi.o(i.SPI_TBIMConfig), (32 bytes).
    Removing lib_timer.o(.rev16_text), (4 bytes).
    Removing lib_timer.o(.revsh_text), (4 bytes).
    Removing lib_timer.o(i.T16Nx_CapInit), (132 bytes).
    Removing lib_timer.o(i.T16Nx_GetCNT), (8 bytes).
    Removing lib_timer.o(i.T16Nx_GetFlagStatus), (20 bytes).
    Removing lib_timer.o(i.T16Nx_GetMAT0), (8 bytes).
    Removing lib_timer.o(i.T16Nx_GetMAT1), (8 bytes).
    Removing lib_timer.o(i.T16Nx_GetMAT2), (8 bytes).
    Removing lib_timer.o(i.T16Nx_GetMAT3), (8 bytes).
    Removing lib_timer.o(i.T16Nx_GetPRECNT), (8 bytes).
    Removing lib_timer.o(i.T16Nx_GetPWMBKF), (20 bytes).
    Removing lib_timer.o(i.T16Nx_MAT0Out0Config), (20 bytes).
    Removing lib_timer.o(i.T16Nx_MAT1ITConfig), (24 bytes).
    Removing lib_timer.o(i.T16Nx_MAT1Out0Config), (20 bytes).
    Removing lib_timer.o(i.T16Nx_MAT2ITConfig), (24 bytes).
    Removing lib_timer.o(i.T16Nx_MAT2Out1Config), (24 bytes).
    Removing lib_timer.o(i.T16Nx_MAT3ITConfig), (24 bytes).
    Removing lib_timer.o(i.T16Nx_MAT3Out1Config), (24 bytes).
    Removing lib_timer.o(i.T16Nx_PWMBK_Config), (106 bytes).
    Removing lib_timer.o(i.T16Nx_PWMOutConfig), (84 bytes).
    Removing lib_timer.o(i.T16Nx_PWM_MATBUFUP_Disable), (12 bytes).
    Removing lib_timer.o(i.T16Nx_PWM_MATBUFUP_Enable), (14 bytes).
    Removing lib_timer.o(i.T16Nx_Reload_CAP0), (24 bytes).
    Removing lib_timer.o(i.T16Nx_Reload_CAP1), (24 bytes).
    Removing lib_timer.o(i.T16Nx_ResetPWMBKF), (14 bytes).
    Removing lib_timer.o(i.T16Nx_SetCNT), (14 bytes).
    Removing lib_timer.o(i.T16Nx_SetMAT1), (14 bytes).
    Removing lib_timer.o(i.T16Nx_SetMAT2), (14 bytes).
    Removing lib_timer.o(i.T16Nx_SetMAT3), (14 bytes).
    Removing lib_timer.o(i.T16Nx_SetPRECNT), (14 bytes).
    Removing lib_timer.o(i.T16Nx_SetTOP), (14 bytes).
    Removing lib_timer.o(i.T16Nx_TRG_Config), (82 bytes).
    Removing lib_timer.o(i.T32Nx_BaseInit), (76 bytes).
    Removing lib_timer.o(i.T32Nx_CapInit), (132 bytes).
    Removing lib_timer.o(i.T32Nx_ClearIFPendingBit), (4 bytes).
    Removing lib_timer.o(i.T32Nx_GetCNT), (6 bytes).
    Removing lib_timer.o(i.T32Nx_GetFlagStatus), (20 bytes).
    Removing lib_timer.o(i.T32Nx_GetITStatus), (38 bytes).
    Removing lib_timer.o(i.T32Nx_GetMAT0), (6 bytes).
    Removing lib_timer.o(i.T32Nx_GetMAT1), (6 bytes).
    Removing lib_timer.o(i.T32Nx_GetMAT2), (6 bytes).
    Removing lib_timer.o(i.T32Nx_GetMAT3), (6 bytes).
    Removing lib_timer.o(i.T32Nx_GetPRECNT), (8 bytes).
    Removing lib_timer.o(i.T32Nx_ITConfig), (20 bytes).
    Removing lib_timer.o(i.T32Nx_MAT0ITConfig), (24 bytes).
    Removing lib_timer.o(i.T32Nx_MAT0Out0Config), (20 bytes).
    Removing lib_timer.o(i.T32Nx_MAT1ITConfig), (24 bytes).
    Removing lib_timer.o(i.T32Nx_MAT1Out0Config), (20 bytes).
    Removing lib_timer.o(i.T32Nx_MAT2ITConfig), (24 bytes).
    Removing lib_timer.o(i.T32Nx_MAT2Out1Config), (24 bytes).
    Removing lib_timer.o(i.T32Nx_MAT3ITConfig), (24 bytes).
    Removing lib_timer.o(i.T32Nx_MAT3Out1Config), (24 bytes).
    Removing lib_timer.o(i.T32Nx_Reload_CAP0), (24 bytes).
    Removing lib_timer.o(i.T32Nx_Reload_CAP1), (24 bytes).
    Removing lib_timer.o(i.T32Nx_SetCNT), (6 bytes).
    Removing lib_timer.o(i.T32Nx_SetMAT0), (6 bytes).
    Removing lib_timer.o(i.T32Nx_SetMAT1), (6 bytes).
    Removing lib_timer.o(i.T32Nx_SetMAT2), (6 bytes).
    Removing lib_timer.o(i.T32Nx_SetMAT3), (6 bytes).
    Removing lib_timer.o(i.T32Nx_SetPRECNT), (16 bytes).
    Removing lib_timer.o(i.T32Nx_SetPREMAT), (16 bytes).
    Removing lib_uart.o(.rev16_text), (4 bytes).
    Removing lib_uart.o(.revsh_text), (4 bytes).
    Removing lib_uart.o(i.UART_ClearITPendingBit), (4 bytes).
    Removing lib_uart.o(i.UART_RecHalfWord), (6 bytes).
    Removing lib_uart.o(i.UART_RecWord), (6 bytes).
    Removing lib_uart.o(i.UART_SWHFDisable), (12 bytes).
    Removing lib_uart.o(i.UART_SWHFEnable), (14 bytes).
    Removing lib_uart.o(i.UART_SendHalfWord), (4 bytes).
    Removing lib_uart.o(i.UART_SendWord), (4 bytes).
    Removing lib_wdt.o(.rev16_text), (4 bytes).
    Removing lib_wdt.o(.revsh_text), (4 bytes).
    Removing lib_wdt.o(i.IWDT_GetFlagStatus), (24 bytes).
    Removing lib_wdt.o(i.IWDT_GetITStatus), (24 bytes).
    Removing lib_wdt.o(i.IWDT_GetValue), (12 bytes).
    Removing lib_wdt.o(i.IWDT_Init), (120 bytes).
    Removing lib_wdt.o(i.IWDT_SetReloadValue), (16 bytes).
    Removing lib_wdt.o(i.WWDT_GetFlagStatus), (24 bytes).
    Removing lib_wdt.o(i.WWDT_GetITStatus), (24 bytes).
    Removing lib_wdt.o(i.WWDT_GetValue), (12 bytes).
    Removing lib_wdt.o(i.WWDT_Init), (140 bytes).
    Removing lib_wdt.o(i.WWDT_SetReloadValue), (16 bytes).
    Removing irqhandler.o(.rev16_text), (4 bytes).
    Removing irqhandler.o(.revsh_text), (4 bytes).
    Removing system_es8h018x.o(.rev16_text), (4 bytes).
    Removing system_es8h018x.o(.revsh_text), (4 bytes).
    Removing systick.o(.rev16_text), (4 bytes).
    Removing systick.o(.revsh_text), (4 bytes).
    Removing systick.o(i.Delay100us), (52 bytes).
    Removing systick.o(i.Delay1ms), (22 bytes).
    Removing init_es8h018x_ex8h0163.o(.rev16_text), (4 bytes).
    Removing init_es8h018x_ex8h0163.o(.revsh_text), (4 bytes).
    Removing init_es8h018x_ex8h0163.o(i.ConfigIO_OpenDrainDisable), (18 bytes).
    Removing init_es8h018x_ex8h0163.o(i.ConfigIO_OpenDrainEnable), (18 bytes).
    Removing init_es8h018x_ex8h0163.o(i.ConfigIO_OutputNormal), (18 bytes).
    Removing init_es8h018x_ex8h0163.o(i.ConfigIO_OutputStrong), (18 bytes).
    Removing init_es8h018x_ex8h0163.o(i.ConfigIO_PullDownDisable), (18 bytes).
    Removing init_es8h018x_ex8h0163.o(i.ConfigIO_PullDownEnable), (18 bytes).
    Removing func.o(.rev16_text), (4 bytes).
    Removing func.o(.revsh_text), (4 bytes).
    Removing main.o(.rev16_text), (4 bytes).
    Removing main.o(.revsh_text), (4 bytes).
    Removing eep24c02.o(.rev16_text), (4 bytes).
    Removing eep24c02.o(.revsh_text), (4 bytes).
    Removing ad.o(.rev16_text), (4 bytes).
    Removing ad.o(.revsh_text), (4 bytes).
    Removing ad_app.o(.rev16_text), (4 bytes).
    Removing ad_app.o(.revsh_text), (4 bytes).
    Removing switch.o(.rev16_text), (4 bytes).
    Removing switch.o(.revsh_text), (4 bytes).
    Removing stepmotor.o(.rev16_text), (4 bytes).
    Removing stepmotor.o(.revsh_text), (4 bytes).
    Removing stepmotor_app.o(.rev16_text), (4 bytes).
    Removing stepmotor_app.o(.revsh_text), (4 bytes).
    Removing swing.o(.rev16_text), (4 bytes).
    Removing swing.o(.revsh_text), (4 bytes).
    Removing uart.o(.rev16_text), (4 bytes).
    Removing uart.o(.revsh_text), (4 bytes).
    Removing uart_app.o(.rev16_text), (4 bytes).
    Removing uart_app.o(.revsh_text), (4 bytes).
    Removing function.o(.rev16_text), (4 bytes).
    Removing function.o(.revsh_text), (4 bytes).
    Removing remember.o(.rev16_text), (4 bytes).
    Removing remember.o(.revsh_text), (4 bytes).
    Removing remember.o(i.LowVoltDetect), (432 bytes).
    Removing protect.o(.rev16_text), (4 bytes).
    Removing protect.o(.revsh_text), (4 bytes).
    Removing protect.o(i.Protect_CompCurr), (220 bytes).
    Removing protect.o(i.Protect_CurrentCold), (540 bytes).
    Removing protect.o(i.Protect_CurrentHeat), (504 bytes).
    Removing defrost.o(.rev16_text), (4 bytes).
    Removing defrost.o(.revsh_text), (4 bytes).
    Removing commmotdrv.o(.rev16_text), (4 bytes).
    Removing commmotdrv.o(.revsh_text), (4 bytes).
    Removing commdisp.o(.rev16_text), (4 bytes).
    Removing commdisp.o(.revsh_text), (4 bytes).
    Removing cmdin.o(.rev16_text), (4 bytes).
    Removing cmdin.o(.revsh_text), (4 bytes).
    Removing cmdout.o(.rev16_text), (4 bytes).
    Removing cmdout.o(.revsh_text), (4 bytes).
    Removing comp.o(.rev16_text), (4 bytes).
    Removing comp.o(.revsh_text), (4 bytes).
    Removing fan.o(.rev16_text), (4 bytes).
    Removing fan.o(.revsh_text), (4 bytes).
    Removing timer.o(.rev16_text), (4 bytes).
    Removing timer.o(.revsh_text), (4 bytes).
    Removing tempr.o(.rev16_text), (4 bytes).
    Removing tempr.o(.revsh_text), (4 bytes).
    Removing waterbox.o(.rev16_text), (4 bytes).
    Removing waterbox.o(.revsh_text), (4 bytes).
    Removing fourway.o(.rev16_text), (4 bytes).
    Removing fourway.o(.revsh_text), (4 bytes).
    Removing wpmotor.o(.rev16_text), (4 bytes).
    Removing wpmotor.o(.revsh_text), (4 bytes).
    Removing uvc.o(.rev16_text), (4 bytes).
    Removing uvc.o(.revsh_text), (4 bytes).
    Removing expvalve.o(.rev16_text), (4 bytes).
    Removing expvalve.o(.revsh_text), (4 bytes).
    Removing lowpower.o(.rev16_text), (4 bytes).
    Removing lowpower.o(.revsh_text), (4 bytes).
    Removing eaheater.o(.rev16_text), (4 bytes).
    Removing eaheater.o(.revsh_text), (4 bytes).
    Removing dcfan.o(.rev16_text), (4 bytes).
    Removing dcfan.o(.revsh_text), (4 bytes).
    Removing twifi.o(.rev16_text), (4 bytes).
    Removing twifi.o(.revsh_text), (4 bytes).
    Removing twifi.o(i.Uart_PutChar), (2 bytes).

278 unused section(s) (total 8894 bytes) removed from the image.

==============================================================================

Image Symbol Table

    Local Symbols

    Symbol Name                              Value     Ov Type        Size  Object(Section)

    RESET                                    0x00000000   Section      192  startup_es8h018x.o(RESET)
    ../clib/angel/boardlib.s                 0x00000000   Number         0  boardshut.o ABSOLUTE
    ../clib/angel/boardlib.s                 0x00000000   Number         0  boardinit3.o ABSOLUTE
    ../clib/angel/boardlib.s                 0x00000000   Number         0  boardinit2.o ABSOLUTE
    ../clib/angel/boardlib.s                 0x00000000   Number         0  boardinit1.o ABSOLUTE
    ../clib/angel/handlers.s                 0x00000000   Number         0  __scatter_zi.o ABSOLUTE
    ../clib/angel/handlers.s                 0x00000000   Number         0  __scatter_copy.o ABSOLUTE
    ../clib/angel/kernel.s                   0x00000000   Number         0  __rtentry4.o ABSOLUTE
    ../clib/angel/kernel.s                   0x00000000   Number         0  rtexit2.o ABSOLUTE
    ../clib/angel/kernel.s                   0x00000000   Number         0  __rtentry2.o ABSOLUTE
    ../clib/angel/kernel.s                   0x00000000   Number         0  rtexit.o ABSOLUTE
    ../clib/angel/kernel.s                   0x00000000   Number         0  __rtentry.o ABSOLUTE
    ../clib/angel/rt.s                       0x00000000   Number         0  aeabi_idiv0.o ABSOLUTE
    ../clib/angel/rt.s                       0x00000000   Number         0  rt_raise.o ABSOLUTE
    ../clib/angel/rt.s                       0x00000000   Number         0  rt_div0.o ABSOLUTE
    ../clib/angel/rt.s                       0x00000000   Number         0  aeabi_idiv0_sigfpe.o ABSOLUTE
    ../clib/angel/scatterp.s                 0x00000000   Number         0  __scatter.o ABSOLUTE
    ../clib/angel/startup.s                  0x00000000   Number         0  __main.o ABSOLUTE
    ../clib/angel/sys.s                      0x00000000   Number         0  tempstk.o ABSOLUTE
    ../clib/angel/sys.s                      0x00000000   Number         0  sys_stackheap_outer.o ABSOLUTE
    ../clib/angel/sys.s                      0x00000000   Number         0  indicate_semi.o ABSOLUTE
    ../clib/angel/sys.s                      0x00000000   Number         0  use_no_semi.o ABSOLUTE
    ../clib/angel/sys.s                      0x00000000   Number         0  libspace.o ABSOLUTE
    ../clib/angel/sysapp.c                   0x00000000   Number         0  sys_exit.o ABSOLUTE
    ../clib/angel/sysapp.c                   0x00000000   Number         0  sys_wrch.o ABSOLUTE
    ../clib/angel/sysapp.c                   0x00000000   Number         0  sys_command.o ABSOLUTE
    ../clib/armsys.c                         0x00000000   Number         0  _get_argv_nomalloc.o ABSOLUTE
    ../clib/armsys.c                         0x00000000   Number         0  no_argv.o ABSOLUTE
    ../clib/armsys.c                         0x00000000   Number         0  argv_veneer.o ABSOLUTE
    ../clib/division.s                       0x00000000   Number         0  aeabi_sdiv_div0.o ABSOLUTE
    ../clib/division.s                       0x00000000   Number         0  aeabi_sdiv.o ABSOLUTE
    ../clib/heapalloc.c                      0x00000000   Number         0  hrguard.o ABSOLUTE
    ../clib/heapaux.c                        0x00000000   Number         0  heapauxi.o ABSOLUTE
    ../clib/libinit.s                        0x00000000   Number         0  libshutdown2.o ABSOLUTE
    ../clib/libinit.s                        0x00000000   Number         0  libinit.o ABSOLUTE
    ../clib/libinit.s                        0x00000000   Number         0  libshutdown.o ABSOLUTE
    ../clib/libinit.s                        0x00000000   Number         0  libinit2.o ABSOLUTE
    ../clib/memcpset.c                       0x00000000   Number         0  rt_memcpy.o ABSOLUTE
    ../clib/memcpset.c                       0x00000000   Number         0  rt_memcpy.o ABSOLUTE
    ../clib/memcpset.c                       0x00000000   Number         0  rt_memclr.o ABSOLUTE
    ../clib/signal.c                         0x00000000   Number         0  defsig_rtmem_outer.o ABSOLUTE
    ../clib/signal.c                         0x00000000   Number         0  defsig_abrt_inner.o ABSOLUTE
    ../clib/signal.c                         0x00000000   Number         0  defsig_rtred_inner.o ABSOLUTE
    ../clib/signal.c                         0x00000000   Number         0  defsig_other.o ABSOLUTE
    ../clib/signal.c                         0x00000000   Number         0  __raise.o ABSOLUTE
    ../clib/signal.c                         0x00000000   Number         0  defsig_rtmem_inner.o ABSOLUTE
    ../clib/signal.c                         0x00000000   Number         0  defsig_fpe_outer.o ABSOLUTE
    ../clib/signal.c                         0x00000000   Number         0  defsig_fpe_inner.o ABSOLUTE
    ../clib/signal.c                         0x00000000   Number         0  defsig_exit.o ABSOLUTE
    ../clib/signal.c                         0x00000000   Number         0  defsig_rtmem_formal.o ABSOLUTE
    ../clib/signal.c                         0x00000000   Number         0  defsig_fpe_formal.o ABSOLUTE
    ../clib/signal.c                         0x00000000   Number         0  defsig_general.o ABSOLUTE
    ../clib/signal.c                         0x00000000   Number         0  defsig_segv_inner.o ABSOLUTE
    ../clib/signal.c                         0x00000000   Number         0  defsig_cppl_inner.o ABSOLUTE
    ../clib/signal.c                         0x00000000   Number         0  defsig_pvfn_inner.o ABSOLUTE
    ../clib/signal.c                         0x00000000   Number         0  defsig_stak_inner.o ABSOLUTE
    ../clib/signal.s                         0x00000000   Number         0  defsig.o ABSOLUTE
    ../clib/stdlib.c                         0x00000000   Number         0  exit.o ABSOLUTE
    ../fplib/cfplib/ffix.c                   0x00000000   Number         0  ffixui.o ABSOLUTE
    ../fplib/cfplib/fflt.c                   0x00000000   Number         0  fflti.o ABSOLUTE
    ../fplib/cfplib/fpinit.c                 0x00000000   Number         0  fpinit.o ABSOLUTE
    ../fplib/usenofp.s                       0x00000000   Number         0  usenofp.o ABSOLUTE
    ..\\code\\Function\\CmdIn.c              0x00000000   Number         0  cmdin.o ABSOLUTE
    ..\\code\\Function\\CmdOut.c             0x00000000   Number         0  cmdout.o ABSOLUTE
    ..\\code\\Function\\CommDisp.c           0x00000000   Number         0  commdisp.o ABSOLUTE
    ..\\code\\Function\\CommMotDrv.c         0x00000000   Number         0  commmotdrv.o ABSOLUTE
    ..\\code\\Function\\Comp.c               0x00000000   Number         0  comp.o ABSOLUTE
    ..\\code\\Function\\DCFan.c              0x00000000   Number         0  dcfan.o ABSOLUTE
    ..\\code\\Function\\Defrost.c            0x00000000   Number         0  defrost.o ABSOLUTE
    ..\\code\\Function\\EAHeater.c           0x00000000   Number         0  eaheater.o ABSOLUTE
    ..\\code\\Function\\ExpValve.c           0x00000000   Number         0  expvalve.o ABSOLUTE
    ..\\code\\Function\\Fan.c                0x00000000   Number         0  fan.o ABSOLUTE
    ..\\code\\Function\\FourWay.c            0x00000000   Number         0  fourway.o ABSOLUTE
    ..\\code\\Function\\Function.c           0x00000000   Number         0  function.o ABSOLUTE
    ..\\code\\Function\\LowPower.c           0x00000000   Number         0  lowpower.o ABSOLUTE
    ..\\code\\Function\\Protect.c            0x00000000   Number         0  protect.o ABSOLUTE
    ..\\code\\Function\\Remember.c           0x00000000   Number         0  remember.o ABSOLUTE
    ..\\code\\Function\\Tempr.c              0x00000000   Number         0  tempr.o ABSOLUTE
    ..\\code\\Function\\Timer.c              0x00000000   Number         0  timer.o ABSOLUTE
    ..\\code\\Function\\UVC.c                0x00000000   Number         0  uvc.o ABSOLUTE
    ..\\code\\Function\\WPMotor.c            0x00000000   Number         0  wpmotor.o ABSOLUTE
    ..\\code\\Function\\WaterBox.c           0x00000000   Number         0  waterbox.o ABSOLUTE
    ..\\code\\Function\\tWiFi.c              0x00000000   Number         0  twifi.o ABSOLUTE
    ..\\code\\Module\\Module32_Uart_V1.0.0\\Uart.c 0x00000000   Number         0  uart.o ABSOLUTE
    ..\\code\\Module\\Module32_Uart_V1.0.0\\Uart_app.c 0x00000000   Number         0  uart_app.o ABSOLUTE
    ..\\code\\Module\\Module_Ad_ES8H018X_V1.0.0\\Ad.c 0x00000000   Number         0  ad.o ABSOLUTE
    ..\\code\\Module\\Module_Ad_ES8H018X_V1.0.0\\Ad_app.c 0x00000000   Number         0  ad_app.o ABSOLUTE
    ..\\code\\Module\\Module_EEP24C02_V1.0.0\\EEP24C02.c 0x00000000   Number         0  eep24c02.o ABSOLUTE
    ..\\code\\Module\\Module_Stepmotor_V1.0.0\\Stepmotor.c 0x00000000   Number         0  stepmotor.o ABSOLUTE
    ..\\code\\Module\\Module_Stepmotor_V1.0.0\\Stepmotor_app.c 0x00000000   Number         0  stepmotor_app.o ABSOLUTE
    ..\\code\\Module\\Module_Stepmotor_V1.0.0\\Swing.c 0x00000000   Number         0  swing.o ABSOLUTE
    ..\\code\\Module\\Module_Switch_V1.0.0\\Switch.c 0x00000000   Number         0  switch.o ABSOLUTE
    ..\\code\\_CMSIS\\system_es8h018x.c      0x00000000   Number         0  system_es8h018x.o ABSOLUTE
    ..\\code\\_mdev\\Init_ES8H018X_EX8H0163.c 0x00000000   Number         0  init_es8h018x_ex8h0163.o ABSOLUTE
    ..\\code\\_mdev\\irqhandler.c            0x00000000   Number         0  irqhandler.o ABSOLUTE
    ..\\code\\_mdev\\systick.c               0x00000000   Number         0  systick.o ABSOLUTE
    ..\\code\\_msys\\Func.c                  0x00000000   Number         0  func.o ABSOLUTE
    ..\\code\\_msys\\main.c                  0x00000000   Number         0  main.o ABSOLUTE
    ..\\library\\StdDriver\\src\\lib_adc.c   0x00000000   Number         0  lib_adc.o ABSOLUTE
    ..\\library\\StdDriver\\src\\lib_crc.c   0x00000000   Number         0  lib_crc.o ABSOLUTE
    ..\\library\\StdDriver\\src\\lib_gpio.c  0x00000000   Number         0  lib_gpio.o ABSOLUTE
    ..\\library\\StdDriver\\src\\lib_iap.c   0x00000000   Number         0  lib_iap.o ABSOLUTE
    ..\\library\\StdDriver\\src\\lib_iic.c   0x00000000   Number         0  lib_iic.o ABSOLUTE
    ..\\library\\StdDriver\\src\\lib_printf.c 0x00000000   Number         0  lib_printf.o ABSOLUTE
    ..\\library\\StdDriver\\src\\lib_scs.c   0x00000000   Number         0  lib_scs.o ABSOLUTE
    ..\\library\\StdDriver\\src\\lib_scu.c   0x00000000   Number         0  lib_scu.o ABSOLUTE
    ..\\library\\StdDriver\\src\\lib_spi.c   0x00000000   Number         0  lib_spi.o ABSOLUTE
    ..\\library\\StdDriver\\src\\lib_timer.c 0x00000000   Number         0  lib_timer.o ABSOLUTE
    ..\\library\\StdDriver\\src\\lib_uart.c  0x00000000   Number         0  lib_uart.o ABSOLUTE
    ..\\library\\StdDriver\\src\\lib_wdt.c   0x00000000   Number         0  lib_wdt.o ABSOLUTE
    ..\code\Function\CmdIn.c                 0x00000000   Number         0  cmdin.o ABSOLUTE
    ..\code\Function\CmdOut.c                0x00000000   Number         0  cmdout.o ABSOLUTE
    ..\code\Function\CommDisp.c              0x00000000   Number         0  commdisp.o ABSOLUTE
    ..\code\Function\CommMotDrv.c            0x00000000   Number         0  commmotdrv.o ABSOLUTE
    ..\code\Function\Comp.c                  0x00000000   Number         0  comp.o ABSOLUTE
    ..\code\Function\DCFan.c                 0x00000000   Number         0  dcfan.o ABSOLUTE
    ..\code\Function\Defrost.c               0x00000000   Number         0  defrost.o ABSOLUTE
    ..\code\Function\EAHeater.c              0x00000000   Number         0  eaheater.o ABSOLUTE
    ..\code\Function\ExpValve.c              0x00000000   Number         0  expvalve.o ABSOLUTE
    ..\code\Function\Fan.c                   0x00000000   Number         0  fan.o ABSOLUTE
    ..\code\Function\FourWay.c               0x00000000   Number         0  fourway.o ABSOLUTE
    ..\code\Function\Function.c              0x00000000   Number         0  function.o ABSOLUTE
    ..\code\Function\LowPower.c              0x00000000   Number         0  lowpower.o ABSOLUTE
    ..\code\Function\Protect.c               0x00000000   Number         0  protect.o ABSOLUTE
    ..\code\Function\Remember.c              0x00000000   Number         0  remember.o ABSOLUTE
    ..\code\Function\Tempr.c                 0x00000000   Number         0  tempr.o ABSOLUTE
    ..\code\Function\Timer.c                 0x00000000   Number         0  timer.o ABSOLUTE
    ..\code\Function\UVC.c                   0x00000000   Number         0  uvc.o ABSOLUTE
    ..\code\Function\WPMotor.c               0x00000000   Number         0  wpmotor.o ABSOLUTE
    ..\code\Function\WaterBox.c              0x00000000   Number         0  waterbox.o ABSOLUTE
    ..\code\Function\tWiFi.c                 0x00000000   Number         0  twifi.o ABSOLUTE
    ..\code\Module\Module32_Uart_V1.0.0\Uart.c 0x00000000   Number         0  uart.o ABSOLUTE
    ..\code\Module\Module32_Uart_V1.0.0\Uart_app.c 0x00000000   Number         0  uart_app.o ABSOLUTE
    ..\code\Module\Module_Ad_ES8H018X_V1.0.0\Ad.c 0x00000000   Number         0  ad.o ABSOLUTE
    ..\code\Module\Module_Ad_ES8H018X_V1.0.0\Ad_app.c 0x00000000   Number         0  ad_app.o ABSOLUTE
    ..\code\Module\Module_EEP24C02_V1.0.0\EEP24C02.c 0x00000000   Number         0  eep24c02.o ABSOLUTE
    ..\code\Module\Module_Stepmotor_V1.0.0\Stepmotor.c 0x00000000   Number         0  stepmotor.o ABSOLUTE
    ..\code\Module\Module_Stepmotor_V1.0.0\Stepmotor_app.c 0x00000000   Number         0  stepmotor_app.o ABSOLUTE
    ..\code\Module\Module_Stepmotor_V1.0.0\Swing.c 0x00000000   Number         0  swing.o ABSOLUTE
    ..\code\Module\Module_Switch_V1.0.0\Switch.c 0x00000000   Number         0  switch.o ABSOLUTE
    ..\code\_CMSIS\system_es8h018x.c         0x00000000   Number         0  system_es8h018x.o ABSOLUTE
    ..\code\_mdev\Init_ES8H018X_EX8H0163.c   0x00000000   Number         0  init_es8h018x_ex8h0163.o ABSOLUTE
    ..\code\_mdev\irqhandler.c               0x00000000   Number         0  irqhandler.o ABSOLUTE
    ..\code\_mdev\systick.c                  0x00000000   Number         0  systick.o ABSOLUTE
    ..\code\_msys\Func.c                     0x00000000   Number         0  func.o ABSOLUTE
    ..\code\_msys\main.c                     0x00000000   Number         0  main.o ABSOLUTE
    ..\library\Device\ES8H018x\startup_ES8H018x.s 0x00000000   Number         0  startup_es8h018x.o ABSOLUTE
    ..\library\StdDriver\src\lib_adc.c       0x00000000   Number         0  lib_adc.o ABSOLUTE
    ..\library\StdDriver\src\lib_crc.c       0x00000000   Number         0  lib_crc.o ABSOLUTE
    ..\library\StdDriver\src\lib_gpio.c      0x00000000   Number         0  lib_gpio.o ABSOLUTE
    ..\library\StdDriver\src\lib_iap.c       0x00000000   Number         0  lib_iap.o ABSOLUTE
    ..\library\StdDriver\src\lib_iic.c       0x00000000   Number         0  lib_iic.o ABSOLUTE
    ..\library\StdDriver\src\lib_printf.c    0x00000000   Number         0  lib_printf.o ABSOLUTE
    ..\library\StdDriver\src\lib_scs.c       0x00000000   Number         0  lib_scs.o ABSOLUTE
    ..\library\StdDriver\src\lib_scu.c       0x00000000   Number         0  lib_scu.o ABSOLUTE
    ..\library\StdDriver\src\lib_spi.c       0x00000000   Number         0  lib_spi.o ABSOLUTE
    ..\library\StdDriver\src\lib_timer.c     0x00000000   Number         0  lib_timer.o ABSOLUTE
    ..\library\StdDriver\src\lib_uart.c      0x00000000   Number         0  lib_uart.o ABSOLUTE
    ..\library\StdDriver\src\lib_wdt.c       0x00000000   Number         0  lib_wdt.o ABSOLUTE
    dc.s                                     0x00000000   Number         0  dc.o ABSOLUTE
    !!!main                                  0x000000c0   Section        8  __main.o(!!!main)
    !!!scatter                               0x000000c8   Section       60  __scatter.o(!!!scatter)
    !!handler_copy                           0x00000104   Section       26  __scatter_copy.o(!!handler_copy)
    !!handler_zi                             0x00000120   Section       28  __scatter_zi.o(!!handler_zi)
    .ARM.Collect$$libinit$$00000000          0x0000013c   Section        2  libinit.o(.ARM.Collect$$libinit$$00000000)
    .ARM.Collect$$libinit$$00000002          0x0000013e   Section        0  libinit2.o(.ARM.Collect$$libinit$$00000002)
    .ARM.Collect$$libinit$$00000004          0x0000013e   Section        0  libinit2.o(.ARM.Collect$$libinit$$00000004)
    .ARM.Collect$$libinit$$0000000A          0x0000013e   Section        0  libinit2.o(.ARM.Collect$$libinit$$0000000A)
    .ARM.Collect$$libinit$$0000000C          0x0000013e   Section        0  libinit2.o(.ARM.Collect$$libinit$$0000000C)
    .ARM.Collect$$libinit$$0000000E          0x0000013e   Section        0  libinit2.o(.ARM.Collect$$libinit$$0000000E)
    .ARM.Collect$$libinit$$00000011          0x0000013e   Section        0  libinit2.o(.ARM.Collect$$libinit$$00000011)
    .ARM.Collect$$libinit$$00000013          0x0000013e   Section        0  libinit2.o(.ARM.Collect$$libinit$$00000013)
    .ARM.Collect$$libinit$$00000015          0x0000013e   Section        0  libinit2.o(.ARM.Collect$$libinit$$00000015)
    .ARM.Collect$$libinit$$00000017          0x0000013e   Section        0  libinit2.o(.ARM.Collect$$libinit$$00000017)
    .ARM.Collect$$libinit$$00000019          0x0000013e   Section        0  libinit2.o(.ARM.Collect$$libinit$$00000019)
    .ARM.Collect$$libinit$$0000001B          0x0000013e   Section        0  libinit2.o(.ARM.Collect$$libinit$$0000001B)
    .ARM.Collect$$libinit$$0000001D          0x0000013e   Section        0  libinit2.o(.ARM.Collect$$libinit$$0000001D)
    .ARM.Collect$$libinit$$0000001F          0x0000013e   Section        0  libinit2.o(.ARM.Collect$$libinit$$0000001F)
    .ARM.Collect$$libinit$$00000021          0x0000013e   Section        0  libinit2.o(.ARM.Collect$$libinit$$00000021)
    .ARM.Collect$$libinit$$00000023          0x0000013e   Section        0  libinit2.o(.ARM.Collect$$libinit$$00000023)
    .ARM.Collect$$libinit$$00000025          0x0000013e   Section        0  libinit2.o(.ARM.Collect$$libinit$$00000025)
    .ARM.Collect$$libinit$$0000002C          0x0000013e   Section        0  libinit2.o(.ARM.Collect$$libinit$$0000002C)
    .ARM.Collect$$libinit$$0000002E          0x0000013e   Section        0  libinit2.o(.ARM.Collect$$libinit$$0000002E)
    .ARM.Collect$$libinit$$00000030          0x0000013e   Section        0  libinit2.o(.ARM.Collect$$libinit$$00000030)
    .ARM.Collect$$libinit$$00000032          0x0000013e   Section        0  libinit2.o(.ARM.Collect$$libinit$$00000032)
    .ARM.Collect$$libinit$$00000033          0x0000013e   Section        2  libinit2.o(.ARM.Collect$$libinit$$00000033)
    .ARM.Collect$$libshutdown$$00000000      0x00000140   Section        2  libshutdown.o(.ARM.Collect$$libshutdown$$00000000)
    .ARM.Collect$$libshutdown$$00000002      0x00000142   Section        0  libshutdown2.o(.ARM.Collect$$libshutdown$$00000002)
    .ARM.Collect$$libshutdown$$00000004      0x00000142   Section        0  libshutdown2.o(.ARM.Collect$$libshutdown$$00000004)
    .ARM.Collect$$libshutdown$$00000006      0x00000142   Section        0  libshutdown2.o(.ARM.Collect$$libshutdown$$00000006)
    .ARM.Collect$$libshutdown$$00000009      0x00000142   Section        0  libshutdown2.o(.ARM.Collect$$libshutdown$$00000009)
    .ARM.Collect$$libshutdown$$0000000C      0x00000142   Section        0  libshutdown2.o(.ARM.Collect$$libshutdown$$0000000C)
    .ARM.Collect$$libshutdown$$0000000E      0x00000142   Section        0  libshutdown2.o(.ARM.Collect$$libshutdown$$0000000E)
    .ARM.Collect$$libshutdown$$00000011      0x00000142   Section        0  libshutdown2.o(.ARM.Collect$$libshutdown$$00000011)
    .ARM.Collect$$libshutdown$$00000012      0x00000142   Section        2  libshutdown2.o(.ARM.Collect$$libshutdown$$00000012)
    .ARM.Collect$$rtentry$$00000000          0x00000144   Section        0  __rtentry.o(.ARM.Collect$$rtentry$$00000000)
    .ARM.Collect$$rtentry$$00000002          0x00000144   Section        0  __rtentry2.o(.ARM.Collect$$rtentry$$00000002)
    .ARM.Collect$$rtentry$$00000004          0x00000144   Section        6  __rtentry4.o(.ARM.Collect$$rtentry$$00000004)
    .ARM.Collect$$rtentry$$00000009          0x0000014a   Section        0  __rtentry2.o(.ARM.Collect$$rtentry$$00000009)
    .ARM.Collect$$rtentry$$0000000A          0x0000014a   Section        4  __rtentry2.o(.ARM.Collect$$rtentry$$0000000A)
    .ARM.Collect$$rtentry$$0000000C          0x0000014e   Section        0  __rtentry2.o(.ARM.Collect$$rtentry$$0000000C)
    .ARM.Collect$$rtentry$$0000000D          0x0000014e   Section        8  __rtentry2.o(.ARM.Collect$$rtentry$$0000000D)
    .ARM.Collect$$rtexit$$00000000           0x00000156   Section        2  rtexit.o(.ARM.Collect$$rtexit$$00000000)
    .ARM.Collect$$rtexit$$00000002           0x00000158   Section        0  rtexit2.o(.ARM.Collect$$rtexit$$00000002)
    .ARM.Collect$$rtexit$$00000003           0x00000158   Section        4  rtexit2.o(.ARM.Collect$$rtexit$$00000003)
    .ARM.Collect$$rtexit$$00000004           0x0000015c   Section        6  rtexit2.o(.ARM.Collect$$rtexit$$00000004)
    .emb_text                                0x00000164   Section       56  rt_memcpy.o(.emb_text)
    .text                                    0x0000019c   Section       52  startup_es8h018x.o(.text)
    .text                                    0x000001d0   Section        0  rt_memclr.o(.text)
    .text                                    0x00000210   Section      346  aeabi_sdiv.o(.text)
    .text                                    0x0000036a   Section        0  heapauxi.o(.text)
    .text                                    0x00000370   Section       62  sys_stackheap_outer.o(.text)
    .text                                    0x000003ae   Section        0  exit.o(.text)
    .text                                    0x000003c0   Section        8  libspace.o(.text)
    .text                                    0x000003c8   Section        0  sys_exit.o(.text)
    .text                                    0x000003d4   Section        2  use_no_semi.o(.text)
    .text                                    0x000003d6   Section        0  indicate_semi.o(.text)
    i.ADC_ClearIFStatus                      0x000003d8   Section        0  lib_adc.o(i.ADC_ClearIFStatus)
    i.ADC_GetConvStatus                      0x000003e8   Section        0  lib_adc.o(i.ADC_GetConvStatus)
    i.ADC_GetConvValue                       0x00000404   Section        0  lib_adc.o(i.ADC_GetConvValue)
    i.ADC_Init                               0x00000464   Section        0  lib_adc.o(i.ADC_Init)
    i.App_ADCGetTemperature                  0x00000560   Section        0  ad_app.o(i.App_ADCGetTemperature)
    i.App_ADCLookupTemperatureTable          0x00000654   Section        0  ad_app.o(i.App_ADCLookupTemperatureTable)
    i.App_AdValueDiffer_Check                0x00000714   Section        0  ad_app.o(i.App_AdValueDiffer_Check)
    i.App_Comp_AntiDew                       0x0000075c   Section        0  comp.o(i.App_Comp_AntiDew)
    i.App_Comp_ForceFun                      0x00000784   Section        0  comp.o(i.App_Comp_ForceFun)
    i.App_Comp_InDoorFan                     0x000007d8   Section        0  comp.o(i.App_Comp_InDoorFan)
    i.App_Comp_PerTest                       0x000008ec   Section        0  comp.o(i.App_Comp_PerTest)
    i.App_Comp_ProCon                        0x000009e8   Section        0  comp.o(i.App_Comp_ProCon)
    i.App_Comp_RunHzInitIndex                0x00000d94   Section        0  comp.o(i.App_Comp_RunHzInitIndex)
    i.App_Comp_Sleep                         0x00000fc8   Section        0  comp.o(i.App_Comp_Sleep)
    i.App_Comp_T1TSDelta                     0x00001038   Section        0  comp.o(i.App_Comp_T1TSDelta)
    i.App_Comp_T2Heat                        0x00001470   Section        0  comp.o(i.App_Comp_T2Heat)
    i.App_Comp_T4                            0x000015d0   Section        0  comp.o(i.App_Comp_T4)
    i.App_Comp_T4_OffJudge                   0x00001a70   Section        0  comp.o(i.App_Comp_T4_OffJudge)
    i.App_Comp_WatFull                       0x00001c9c   Section        0  comp.o(i.App_Comp_WatFull)
    i.App_Event_100ms                        0x00001cdc   Section        0  function.o(i.App_Event_100ms)
    i.App_Event_10ms                         0x0000218c   Section        0  function.o(i.App_Event_10ms)
    i.App_Fan_InDoor                         0x00002190   Section        0  fan.o(i.App_Fan_InDoor)
    i.App_Fan_OutDoor                        0x000027f8   Section        0  fan.o(i.App_Fan_OutDoor)
    i.App_Function                           0x000029a4   Section        0  function.o(i.App_Function)
    i.App_LookUpTemperature                  0x00002a1c   Section        0  ad_app.o(i.App_LookUpTemperature)
    i.App_NTC_Check                          0x00002b7c   Section        0  ad_app.o(i.App_NTC_Check)
    i.App_Status_BussCheck                   0x00002c48   Section        0  function.o(i.App_Status_BussCheck)
    i.App_Status_Init                        0x00002e2c   Section        0  function.o(i.App_Status_Init)
    i.App_Status_Off                         0x00002fe8   Section        0  function.o(i.App_Status_Off)
    i.App_Status_On                          0x000030dc   Section        0  function.o(i.App_Status_On)
    i.App_Status_SelCheck                    0x000041d0   Section        0  function.o(i.App_Status_SelCheck)
    i.App_StepMotor_Run                      0x000041d4   Section        0  stepmotor_app.o(i.App_StepMotor_Run)
    i.App_Switch                             0x000043a4   Section        0  switch.o(i.App_Switch)
    i.App_TCLModule_CtoF                     0x000043e0   Section        0  twifi.o(i.App_TCLModule_CtoF)
    i.App_TCLModule_Fadd1                    0x00004498   Section        0  twifi.o(i.App_TCLModule_Fadd1)
    i.App_TCLModule_Master_Info              0x000044e0   Section        0  twifi.o(i.App_TCLModule_Master_Info)
    i.App_TCLModule_Slave_Info               0x00004a18   Section        0  twifi.o(i.App_TCLModule_Slave_Info)
    i.App_Uart0_Read_Frame                   0x0000583c   Section        0  uart_app.o(i.App_Uart0_Read_Frame)
    i.App_Uart0_Write_Frame                  0x00005a08   Section        0  uart_app.o(i.App_Uart0_Write_Frame)
    i.App_Uart4_Read_Frame                   0x00005afc   Section        0  uart_app.o(i.App_Uart4_Read_Frame)
    i.App_Uart4_Write_Frame                  0x00005d0c   Section        0  uart_app.o(i.App_Uart4_Write_Frame)
    i.BaseRunTx_Byte10_InDoorProtect1        0x00005e0c   Section        0  commmotdrv.o(i.BaseRunTx_Byte10_InDoorProtect1)
    i.BaseRunTx_Byte11_InDoorProtect2        0x00005efc   Section        0  commmotdrv.o(i.BaseRunTx_Byte11_InDoorProtect2)
    i.BaseRunTx_Byte12_InDoorProtect3        0x00005f98   Section        0  commmotdrv.o(i.BaseRunTx_Byte12_InDoorProtect3)
    i.BaseRunTx_Byte13_InDoorFanSpeedDiv10   0x000060cc   Section        0  commmotdrv.o(i.BaseRunTx_Byte13_InDoorFanSpeedDiv10)
    i.BaseRunTx_Byte14_TempCoil1             0x000060e0   Section        0  commmotdrv.o(i.BaseRunTx_Byte14_TempCoil1)
    i.BaseRunTx_Byte15_TempCoil2             0x0000612c   Section        0  commmotdrv.o(i.BaseRunTx_Byte15_TempCoil2)
    i.BaseRunTx_Byte16_TempExhaust           0x00006178   Section        0  commmotdrv.o(i.BaseRunTx_Byte16_TempExhaust)
    i.BaseRunTx_Byte17_InDoorStatus          0x000061ac   Section        0  commmotdrv.o(i.BaseRunTx_Byte17_InDoorStatus)
    i.BaseRunTx_Byte5_InDoorRunMode          0x00006318   Section        0  commmotdrv.o(i.BaseRunTx_Byte5_InDoorRunMode)
    i.BaseRunTx_Byte6_OutDoorTargetFreq      0x000063d0   Section        0  commmotdrv.o(i.BaseRunTx_Byte6_OutDoorTargetFreq)
    i.BaseRunTx_Byte7_OutDoorTargetFreqDotMul60 0x000063dc   Section        0  commmotdrv.o(i.BaseRunTx_Byte7_OutDoorTargetFreqDotMul60)
    i.BaseRunTx_Byte8_InDoorTempSet          0x00006428   Section        0  commmotdrv.o(i.BaseRunTx_Byte8_InDoorTempSet)
    i.BaseRunTx_Byte9_InDoorTemp             0x0000644c   Section        0  commmotdrv.o(i.BaseRunTx_Byte9_InDoorTemp)
    i.Case_StepMotor_Pause                   0x00006498   Section        0  stepmotor_app.o(i.Case_StepMotor_Pause)
    i.Case_StepMotor_StepTime                0x000064c0   Section        0  stepmotor_app.o(i.Case_StepMotor_StepTime)
    i.CommDisp_Check8                        0x000064e8   Section        0  commdisp.o(i.CommDisp_Check8)
    i.CommMotDrv_BaseRunRx                   0x0000650c   Section        0  commmotdrv.o(i.CommMotDrv_BaseRunRx)
    i.CommMotDrv_BaseRunTx                   0x0000681c   Section        0  commmotdrv.o(i.CommMotDrv_BaseRunTx)
    i.CommMotDrv_Con                         0x000068a4   Section        0  commmotdrv.o(i.CommMotDrv_Con)
    i.CommMotDrv_InfoCon                     0x00006a64   Section        0  commmotdrv.o(i.CommMotDrv_InfoCon)
    i.CommMotDrv_ReqSetRx                    0x00006ab0   Section        0  commmotdrv.o(i.CommMotDrv_ReqSetRx)
    i.CommMotDrv_ReqSetTx                    0x00006b28   Section        0  commmotdrv.o(i.CommMotDrv_ReqSetTx)
    i.ConfigIO_Input                         0x00006bc0   Section        0  init_es8h018x_ex8h0163.o(i.ConfigIO_Input)
    i.ConfigIO_Output                        0x00006bdc   Section        0  init_es8h018x_ex8h0163.o(i.ConfigIO_Output)
    i.ConfigIO_PullUpDisable                 0x00006bf6   Section        0  init_es8h018x_ex8h0163.o(i.ConfigIO_PullUpDisable)
    i.ConfigIO_PullUpEnable                  0x00006c08   Section        0  init_es8h018x_ex8h0163.o(i.ConfigIO_PullUpEnable)
    i.Defrost_Init                           0x00006c1c   Section        0  defrost.o(i.Defrost_Init)
    i.DeviceClockAllEnable                   0x00006c2c   Section        0  lib_scu.o(i.DeviceClockAllEnable)
    i.DisplayBoardCommandCheck               0x00006c60   Section        0  cmdin.o(i.DisplayBoardCommandCheck)
    i.DisplayBoardCommandUpdate              0x00006db0   Section        0  cmdout.o(i.DisplayBoardCommandUpdate)
    i.DisplayBoardTurnOn                     0x00006f14   Section        0  cmdin.o(i.DisplayBoardTurnOn)
    i.DisplayBoard_Byte12_Con                0x00006f8c   Section        0  cmdin.o(i.DisplayBoard_Byte12_Con)
    i.DisplayBoard_Byte12_Update             0x00006fb4   Section        0  cmdout.o(i.DisplayBoard_Byte12_Update)
    i.Drv_Fan_OutDoor                        0x00006ff0   Section        0  fan.o(i.Drv_Fan_OutDoor)
    i.Func_FourWay                           0x00006ff2   Section        0  fourway.o(i.Func_FourWay)
    i.NMI_IRQHandler                         0x00006ffe   Section        0  irqhandler.o(i.NMI_IRQHandler)
    .ARM.__AT_0x00007000                     0x00007000   Section        4  ad.o(.ARM.__AT_0x00007000)
    i.Defrost_Con                            0x00007004   Section        0  defrost.o(i.Defrost_Con)
    i.DisplayBoard_Byte10_Con                0x0000747c   Section        0  cmdin.o(i.DisplayBoard_Byte10_Con)
    i.DisplayBoard_Byte10_Update             0x00007534   Section        0  cmdout.o(i.DisplayBoard_Byte10_Update)
    i.Func_UVC                               0x000075f0   Section        0  uvc.o(i.Func_UVC)
    i.HardFault_IRQHandler                   0x000075fc   Section        0  irqhandler.o(i.HardFault_IRQHandler)
    .ARM.__AT_0x00007600                     0x00007600   Section      504  ad_app.o(.ARM.__AT_0x00007600)
    i.DisplayBoard_Byte13_Con                0x000077f8   Section        0  cmdin.o(i.DisplayBoard_Byte13_Con)
    i.DisplayBoard_Byte13_Update             0x00007824   Section        0  cmdout.o(i.DisplayBoard_Byte13_Update)
    i.Func_Fan                               0x00007860   Section        0  fan.o(i.Func_Fan)
    i.PendSV_IRQHandler                      0x0000787c   Section        0  irqhandler.o(i.PendSV_IRQHandler)
    i.Remember_EE_Dat_Init                   0x0000787e   Section        0  remember.o(i.Remember_EE_Dat_Init)
    .ARM.__AT_0x00007880                     0x00007880   Section      504  ad_app.o(.ARM.__AT_0x00007880)
    i.DisplayBoard_Byte14_Con                0x00007a78   Section        0  cmdin.o(i.DisplayBoard_Byte14_Con)
    i.Drv_FourWay                            0x00007ad8   Section        0  fourway.o(i.Drv_FourWay)
    i.SVC_IRQHandler                         0x00007afc   Section        0  irqhandler.o(i.SVC_IRQHandler)
    i.Sys_Run_Func4_Per100ms                 0x00007afe   Section        0  func.o(i.Sys_Run_Func4_Per100ms)
    .ARM.__AT_0x00007B00                     0x00007b00   Section      544  ad_app.o(.ARM.__AT_0x00007B00)
    i.DisplayBoardTurnOff                    0x00007d20   Section        0  cmdin.o(i.DisplayBoardTurnOff)
    i.DisplayBoard_Byte14_Update             0x00007ebc   Section        0  cmdout.o(i.DisplayBoard_Byte14_Update)
    i.DisplayBoard_Byte15_Con                0x00007ef0   Section        0  cmdin.o(i.DisplayBoard_Byte15_Con)
    i.Func_Temprature                        0x00007fe0   Section        0  tempr.o(i.Func_Temprature)
    i.SysTick_IRQHandler                     0x00007ff8   Section        0  irqhandler.o(i.SysTick_IRQHandler)
    .ARM.__AT_0x00008000                     0x00008000   Section        8  stepmotor.o(.ARM.__AT_0x00008000)
    i.DisplayBoard_Byte11_Con                0x00008008   Section        0  cmdin.o(i.DisplayBoard_Byte11_Con)
    i.DisplayBoard_Byte11_Update             0x0000821c   Section        0  cmdout.o(i.DisplayBoard_Byte11_Update)
    i.DisplayBoard_Byte15_Update             0x00008484   Section        0  cmdout.o(i.DisplayBoard_Byte15_Update)
    i.DisplayBoard_Byte16_Update             0x000084ec   Section        0  cmdout.o(i.DisplayBoard_Byte16_Update)
    i.DisplayBoard_Byte17_Update             0x00008520   Section        0  cmdout.o(i.DisplayBoard_Byte17_Update)
    i.DisplayBoard_Byte18_Update             0x000085cc   Section        0  cmdout.o(i.DisplayBoard_Byte18_Update)
    i.DisplayBoard_Byte19_Update             0x000086ac   Section        0  cmdout.o(i.DisplayBoard_Byte19_Update)
    i.DisplayBoard_Byte20_Update             0x000086e8   Section        0  cmdout.o(i.DisplayBoard_Byte20_Update)
    i.DisplayBoard_Byte21_Update             0x0000873c   Section        0  cmdout.o(i.DisplayBoard_Byte21_Update)
    i.DisplayBoard_Byte22_Update             0x00008790   Section        0  cmdout.o(i.DisplayBoard_Byte22_Update)
    i.DisplayBoard_Byte23_Update             0x000087cc   Section        0  cmdout.o(i.DisplayBoard_Byte23_Update)
    i.DisplayBoard_Byte24_Update             0x00008808   Section        0  cmdout.o(i.DisplayBoard_Byte24_Update)
    i.DisplayBoard_Byte25_Update             0x0000884c   Section        0  cmdout.o(i.DisplayBoard_Byte25_Update)
    i.DisplayBoard_Byte26_Update             0x00008890   Section        0  cmdout.o(i.DisplayBoard_Byte26_Update)
    i.DisplayBoard_Byte27_Update             0x000088c8   Section        0  cmdout.o(i.DisplayBoard_Byte27_Update)
    i.DisplayBoard_Byte5_Con                 0x00008920   Section        0  cmdin.o(i.DisplayBoard_Byte5_Con)
    i.DisplayBoard_Byte5_Update              0x00008b28   Section        0  cmdout.o(i.DisplayBoard_Byte5_Update)
    i.DisplayBoard_Byte6_Con                 0x00008cdc   Section        0  cmdin.o(i.DisplayBoard_Byte6_Con)
    i.DisplayBoard_Byte6_Update              0x00009108   Section        0  cmdout.o(i.DisplayBoard_Byte6_Update)
    i.DisplayBoard_Byte7_Con                 0x00009248   Section        0  cmdin.o(i.DisplayBoard_Byte7_Con)
    i.DisplayBoard_Byte7_Update              0x000092b4   Section        0  cmdout.o(i.DisplayBoard_Byte7_Update)
    i.DisplayBoard_Byte8_Con                 0x00009390   Section        0  cmdin.o(i.DisplayBoard_Byte8_Con)
    i.DisplayBoard_Byte8_Update              0x00009430   Section        0  cmdout.o(i.DisplayBoard_Byte8_Update)
    i.DisplayBoard_Byte9_Con                 0x00009478   Section        0  cmdin.o(i.DisplayBoard_Byte9_Con)
    i.DisplayBoard_Byte9_Update              0x00009518   Section        0  cmdout.o(i.DisplayBoard_Byte9_Update)
    i.Drv_Comp                               0x00009588   Section        0  comp.o(i.Drv_Comp)
    i.Drv_Fan_InDoor                         0x0000972c   Section        0  fan.o(i.Drv_Fan_InDoor)
    i.Drv_StepMotor                          0x00009a04   Section        0  stepmotor.o(i.Drv_StepMotor)
    i.Drv_Switch_Scan                        0x00009a74   Section        0  switch.o(i.Drv_Switch_Scan)
    i.Drv_UVC                                0x00009aa0   Section        0  uvc.o(i.Drv_UVC)
    i.Drv_WPMotor                            0x00009ac4   Section        0  wpmotor.o(i.Drv_WPMotor)
    i.F_CRC16                                0x00009ae8   Section        0  uart_app.o(i.F_CRC16)
    i.Func_Comp                              0x00009b48   Section        0  comp.o(i.Func_Comp)
    i.Func_DCFan                             0x00009b80   Section        0  dcfan.o(i.Func_DCFan)
    i.Func_EAHeater                          0x00009c04   Section        0  eaheater.o(i.Func_EAHeater)
    i.Func_HumiCSetInit                      0x00009c84   Section        0  function.o(i.Func_HumiCSetInit)
    i.Func_LowPower                          0x00009cb4   Section        0  lowpower.o(i.Func_LowPower)
    i.Func_Protect                           0x0000a198   Section        0  protect.o(i.Func_Protect)
    i.Func_WPMotor                           0x0000a240   Section        0  wpmotor.o(i.Func_WPMotor)
    i.Func_WaterBox                          0x0000a24c   Section        0  waterbox.o(i.Func_WaterBox)
    i.Func_WiFiPowEn                         0x0000a324   Section        0  twifi.o(i.Func_WiFiPowEn)
    i.GPIOA_ResetBit                         0x0000a390   Section        0  lib_gpio.o(i.GPIOA_ResetBit)
    i.GPIOA_SetBit                           0x0000a3a0   Section        0  lib_gpio.o(i.GPIOA_SetBit)
    i.GPIOB_ResetBit                         0x0000a3b0   Section        0  lib_gpio.o(i.GPIOB_ResetBit)
    i.GPIOB_SetBit                           0x0000a3c0   Section        0  lib_gpio.o(i.GPIOB_SetBit)
    i.GPIO_Init                              0x0000a3d0   Section        0  lib_gpio.o(i.GPIO_Init)
    i.GPIO_Read                              0x0000a474   Section        0  lib_gpio.o(i.GPIO_Read)
    i.GPIO_SetDSRegFromPin                   0x0000a494   Section        0  lib_gpio.o(i.GPIO_SetDSRegFromPin)
    i.GPIO_SetDirRegFromPin                  0x0000a4f0   Section        0  lib_gpio.o(i.GPIO_SetDirRegFromPin)
    i.GPIO_SetFuncxRegFromPin                0x0000a530   Section        0  lib_gpio.o(i.GPIO_SetFuncxRegFromPin)
    i.GPIO_SetODERegFromPin                  0x0000abf4   Section        0  lib_gpio.o(i.GPIO_SetODERegFromPin)
    i.GPIO_SetPDERegFromPin                  0x0000ac50   Section        0  lib_gpio.o(i.GPIO_SetPDERegFromPin)
    i.GPIO_SetPUERegFromPin                  0x0000acac   Section        0  lib_gpio.o(i.GPIO_SetPUERegFromPin)
    i.GPIO_SetPinFLT                         0x0000ad08   Section        0  lib_gpio.o(i.GPIO_SetPinFLT)
    i.GPIO_SetPinType                        0x0000ad64   Section        0  lib_gpio.o(i.GPIO_SetPinType)
    i.GPIO_SetSingalTypeFromPin              0x0000adc0   Section        0  lib_gpio.o(i.GPIO_SetSingalTypeFromPin)
    i.IICM_Delay                             0x0000ae1c   Section        0  eep24c02.o(i.IICM_Delay)
    IICM_Delay                               0x0000ae1d   Thumb Code    14  eep24c02.o(i.IICM_Delay)
    i.IICM_Start                             0x0000ae2a   Section        0  eep24c02.o(i.IICM_Start)
    i.IICM_Stop                              0x0000ae5e   Section        0  eep24c02.o(i.IICM_Stop)
    i.IIC_Read_Byte                          0x0000ae86   Section        0  eep24c02.o(i.IIC_Read_Byte)
    i.IIC_Send_Byte                          0x0000aedc   Section        0  eep24c02.o(i.IIC_Send_Byte)
    i.IIC_SetAck                             0x0000af26   Section        0  eep24c02.o(i.IIC_SetAck)
    i.IIC_SetNoAck                           0x0000af4e   Section        0  eep24c02.o(i.IIC_SetNoAck)
    i.IIC_TestAck                            0x0000af76   Section        0  eep24c02.o(i.IIC_TestAck)
    i.Init_DCFan                             0x0000afd0   Section        0  dcfan.o(i.Init_DCFan)
    i.Init_EAHeater                          0x0000afea   Section        0  eaheater.o(i.Init_EAHeater)
    i.Init_FourWay                           0x0000b004   Section        0  fourway.o(i.Init_FourWay)
    i.Init_LowPower                          0x0000b01e   Section        0  lowpower.o(i.Init_LowPower)
    i.Init_MCU_Gpio                          0x0000b064   Section        0  func.o(i.Init_MCU_Gpio)
    i.Init_MCU_System                        0x0000b0a4   Section        0  init_es8h018x_ex8h0163.o(i.Init_MCU_System)
    i.Init_Pin_WP_Enable                     0x0000b0be   Section        0  remember.o(i.Init_Pin_WP_Enable)
    i.Init_UVC                               0x0000b0d8   Section        0  uvc.o(i.Init_UVC)
    i.Init_WPMotor                           0x0000b0f2   Section        0  wpmotor.o(i.Init_WPMotor)
    i.Init_WiFiPowEn                         0x0000b10c   Section        0  twifi.o(i.Init_WiFiPowEn)
    i.Log_Ad                                 0x0000b128   Section        0  ad.o(i.Log_Ad)
    i.Log_Comp                               0x0000b304   Section        0  comp.o(i.Log_Comp)
    i.Log_Fan_InDoor                         0x0000b700   Section        0  fan.o(i.Log_Fan_InDoor)
    i.Log_Fan_OutDoor                        0x0000b79c   Section        0  fan.o(i.Log_Fan_OutDoor)
    i.Log_FourWay                            0x0000b810   Section        0  fourway.o(i.Log_FourWay)
    i.Log_StepMotor                          0x0000b934   Section        0  stepmotor.o(i.Log_StepMotor)
    i.Log_StepMotor_SweepAuto                0x0000baa4   Section        0  stepmotor.o(i.Log_StepMotor_SweepAuto)
    i.Log_Switch_Fd                          0x0000bb54   Section        0  switch.o(i.Log_Switch_Fd)
    i.Log_UVC                                0x0000bbb0   Section        0  uvc.o(i.Log_UVC)
    i.Log_WPMotor                            0x0000bc90   Section        0  wpmotor.o(i.Log_WPMotor)
    i.Module_Init_Ad                         0x0000bd30   Section        0  ad.o(i.Module_Init_Ad)
    i.Module_Init_IICM                       0x0000bdd0   Section        0  eep24c02.o(i.Module_Init_IICM)
    i.Module_Init_StepMotor                  0x0000be0c   Section        0  stepmotor.o(i.Module_Init_StepMotor)
    i.Module_Init_Switch                     0x0000be68   Section        0  switch.o(i.Module_Init_Switch)
    i.Module_Init_Uart                       0x0000be82   Section        0  uart.o(i.Module_Init_Uart)
    i.Module_Init_Uart0                      0x0000be8e   Section        0  uart.o(i.Module_Init_Uart0)
    i.Module_Init_Uart4                      0x0000bec2   Section        0  uart.o(i.Module_Init_Uart4)
    i.NVIC_Init                              0x0000bef8   Section        0  lib_scs.o(i.NVIC_Init)
    i.PLLClock_Config                        0x0000bf5c   Section        0  lib_scu.o(i.PLLClock_Config)
    i.PortPin_Read                           0x0000c17c   Section        0  init_es8h018x_ex8h0163.o(i.PortPin_Read)
    i.Protect_InFanErr                       0x0000c19c   Section        0  protect.o(i.Protect_InFanErr)
    i.Protect_T2Cold                         0x0000c274   Section        0  protect.o(i.Protect_T2Cold)
    i.Protect_T3Cold                         0x0000c444   Section        0  protect.o(i.Protect_T3Cold)
    i.Protect_Tp                             0x0000c600   Section        0  protect.o(i.Protect_Tp)
    i.Read_24C02                             0x0000c77c   Section        0  eep24c02.o(i.Read_24C02)
    i.Remember_ReadEEFunc                    0x0000c7f0   Section        0  remember.o(i.Remember_ReadEEFunc)
    i.Remember_ReadEEPara                    0x0000c9c8   Section        0  remember.o(i.Remember_ReadEEPara)
    i.Remember_WriteEEFunc                   0x0000cacc   Section        0  remember.o(i.Remember_WriteEEFunc)
    i.Remember_WriteEEPara                   0x0000cdb4   Section        0  remember.o(i.Remember_WriteEEPara)
    i.SCU_HRCReadyFlag                       0x0000d204   Section        0  lib_scu.o(i.SCU_HRCReadyFlag)
    i.SCU_SysClkSelect                       0x0000d220   Section        0  lib_scu.o(i.SCU_SysClkSelect)
    i.SCU_XTALReadyFlag                      0x0000d24c   Section        0  lib_scu.o(i.SCU_XTALReadyFlag)
    i.SaveDatToEEP                           0x0000d268   Section        0  remember.o(i.SaveDatToEEP)
    i.Swing_AntiDew                          0x0000d4c0   Section        0  swing.o(i.Swing_AntiDew)
    i.Swing_Con                              0x0000d630   Section        0  swing.o(i.Swing_Con)
    i.Swing_Sweep                            0x0000d7cc   Section        0  swing.o(i.Swing_Sweep)
    i.Switch_Scan                            0x0000d7f8   Section        0  switch.o(i.Switch_Scan)
    i.SysTickInit                            0x0000d81c   Section        0  systick.o(i.SysTickInit)
    i.SysTick_Init                           0x0000d858   Section        0  lib_scs.o(i.SysTick_Init)
    i.Sys_Run_Event_Per100ms                 0x0000d898   Section        0  main.o(i.Sys_Run_Event_Per100ms)
    i.Sys_Run_Event_Per10ms                  0x0000d8e8   Section        0  main.o(i.Sys_Run_Event_Per10ms)
    i.Sys_Run_Event_Per1ms                   0x0000d938   Section        0  main.o(i.Sys_Run_Event_Per1ms)
    i.Sys_Run_Func1_Per100ms                 0x0000d974   Section        0  func.o(i.Sys_Run_Func1_Per100ms)
    i.Sys_Run_Func1_Per10ms                  0x0000d998   Section        0  func.o(i.Sys_Run_Func1_Per10ms)
    i.Sys_Run_Func2_Per100ms                 0x0000d9a4   Section        0  func.o(i.Sys_Run_Func2_Per100ms)
    i.Sys_Run_Func2_Per10ms                  0x0000d9c8   Section        0  func.o(i.Sys_Run_Func2_Per10ms)
    i.Sys_Run_Func3_Per100ms                 0x0000d9dc   Section        0  func.o(i.Sys_Run_Func3_Per100ms)
    i.Sys_Run_Func3_Per10ms                  0x0000d9e4   Section        0  func.o(i.Sys_Run_Func3_Per10ms)
    i.Sys_Run_Func4_Per10ms                  0x0000d9f0   Section        0  func.o(i.Sys_Run_Func4_Per10ms)
    i.Sys_Run_Func5_Per100ms                 0x0000d9f8   Section        0  func.o(i.Sys_Run_Func5_Per100ms)
    i.Sys_Run_Per2ms                         0x0000da04   Section        0  func.o(i.Sys_Run_Per2ms)
    i.SystemClockConfig                      0x0000da14   Section        0  lib_scu.o(i.SystemClockConfig)
    i.SystemClockSelect                      0x0000dad0   Section        0  lib_scu.o(i.SystemClockSelect)
    i.SystemCoreClockUpdate                  0x0000db5c   Section        0  system_es8h018x.o(i.SystemCoreClockUpdate)
    i.SystemHRCSelect                        0x0000dc64   Section        0  lib_scu.o(i.SystemHRCSelect)
    i.SystemInit                             0x0000dc90   Section        0  system_es8h018x.o(i.SystemInit)
    i.T16N0_IRQHandler                       0x0000dc98   Section        0  irqhandler.o(i.T16N0_IRQHandler)
    i.T16NxInit                              0x0000dd14   Section        0  init_es8h018x_ex8h0163.o(i.T16NxInit)
    i.T16Nx_BaseInit                         0x0000dd6c   Section        0  lib_timer.o(i.T16Nx_BaseInit)
    i.T16Nx_ClearIFPendingBit                0x0000ddb8   Section        0  lib_timer.o(i.T16Nx_ClearIFPendingBit)
    i.T16Nx_GetITStatus                      0x0000ddbc   Section        0  lib_timer.o(i.T16Nx_GetITStatus)
    i.T16Nx_ITConfig                         0x0000dde2   Section        0  lib_timer.o(i.T16Nx_ITConfig)
    i.T16Nx_MAT0ITConfig                     0x0000ddf6   Section        0  lib_timer.o(i.T16Nx_MAT0ITConfig)
    i.T16Nx_SetMAT0                          0x0000de0e   Section        0  lib_timer.o(i.T16Nx_SetMAT0)
    i.T16Nx_SetPREMAT                        0x0000de1c   Section        0  lib_timer.o(i.T16Nx_SetPREMAT)
    i.TempT1TSDeltaZone                      0x0000de2c   Section        0  tempr.o(i.TempT1TSDeltaZone)
    i.TempT2HeatZone                         0x0000e168   Section        0  tempr.o(i.TempT2HeatZone)
    i.TempT4CoolZone                         0x0000e3c0   Section        0  tempr.o(i.TempT4CoolZone)
    i.TempT4HeatZone                         0x0000e780   Section        0  tempr.o(i.TempT4HeatZone)
    i.TempValueCon                           0x0000eb20   Section        0  tempr.o(i.TempValueCon)
    i.TempValueMul10                         0x0000ec7c   Section        0  tempr.o(i.TempValueMul10)
    i.TempValueRounding                      0x0000ec8a   Section        0  tempr.o(i.TempValueRounding)
    i.TimerPara_Init                         0x0000ecec   Section        0  timer.o(i.TimerPara_Init)
    i.TimerUVC_Run                           0x0000ecfc   Section        0  uvc.o(i.TimerUVC_Run)
    i.Timer_Run                              0x0000ed1c   Section        0  timer.o(i.Timer_Run)
    i.TimingDelay_Decrement                  0x0000edb4   Section        0  systick.o(i.TimingDelay_Decrement)
    i.UART0_IRQHandler                       0x0000edcc   Section        0  irqhandler.o(i.UART0_IRQHandler)
    i.UART2_IRQHandler                       0x0000edd4   Section        0  irqhandler.o(i.UART2_IRQHandler)
    i.UART4_IRQHandler                       0x0000eddc   Section        0  irqhandler.o(i.UART4_IRQHandler)
    i.UART_GetFlagStatus                     0x0000ede4   Section        0  lib_uart.o(i.UART_GetFlagStatus)
    i.UART_GetITStatus                       0x0000edf8   Section        0  lib_uart.o(i.UART_GetITStatus)
    i.UART_ITConfig                          0x0000ee0a   Section        0  lib_uart.o(i.UART_ITConfig)
    i.UART_Init                              0x0000ee24   Section        0  lib_uart.o(i.UART_Init)
    i.UART_RBIMConfig                        0x0000ef94   Section        0  lib_uart.o(i.UART_RBIMConfig)
    i.UART_RecByte                           0x0000efac   Section        0  lib_uart.o(i.UART_RecByte)
    i.UART_SendByte                          0x0000efb2   Section        0  lib_uart.o(i.UART_SendByte)
    i.UART_TBIMConfig                        0x0000efb6   Section        0  lib_uart.o(i.UART_TBIMConfig)
    i.Uart0_Config                           0x0000efd0   Section        0  uart_app.o(i.Uart0_Config)
    i.Uart0_Interrupt                        0x0000f09c   Section        0  uart.o(i.Uart0_Interrupt)
    i.Uart0_SendPackDeal                     0x0000f1c8   Section        0  uart.o(i.Uart0_SendPackDeal)
    i.Uart3_Config_lhh                       0x0000f220   Section        0  uart_app.o(i.Uart3_Config_lhh)
    i.Uart3_Init                             0x0000f2ec   Section        0  uart.o(i.Uart3_Init)
    i.Uart3_Interrupt_lhh                    0x0000f33c   Section        0  uart.o(i.Uart3_Interrupt_lhh)
    i.Uart4_Config                           0x0000f438   Section        0  uart_app.o(i.Uart4_Config)
    i.Uart4_Interrupt                        0x0000f504   Section        0  uart.o(i.Uart4_Interrupt)
    i.Uart4_SendPackDeal                     0x0000f62c   Section        0  uart.o(i.Uart4_SendPackDeal)
    i.Write_24C02                            0x0000f684   Section        0  eep24c02.o(i.Write_24C02)
    i.__ARM_common_switch8                   0x0000f708   Section        0  lib_gpio.o(i.__ARM_common_switch8)
    i.app_Rec                                0x0000f724   Section        0  uart_app.o(i.app_Rec)
    i.main                                   0x0000f95c   Section        0  main.o(i.main)
    i.send_OneSix_Data                       0x0000f9a0   Section        0  uart_app.o(i.send_OneSix_Data)
    i.send_Three_Data                        0x0000fa00   Section        0  uart_app.o(i.send_Three_Data)
    .data                                    0x20000000   Section        4  system_es8h018x.o(.data)
    .data                                    0x20000004   Section        4  systick.o(.data)
    .data                                    0x20000008   Section        2  func.o(.data)
    Uart4TXCount                             0x20000008   Data           1  func.o(.data)
    Uart0TXCount                             0x20000009   Data           1  func.o(.data)
    .data                                    0x2000000a   Section        8  main.o(.data)
    .data                                    0x20000012   Section       25  ad_app.o(.data)
    f_temp                                   0x2000001b   Data           4  ad_app.o(.data)
    U8_ntc_open_cnt                          0x2000001f   Data           4  ad_app.o(.data)
    U8_ntc_short_cnt                         0x20000023   Data           4  ad_app.o(.data)
    U8_ntc_good_cnt                          0x20000027   Data           4  ad_app.o(.data)
    .data                                    0x2000002b   Section        4  switch.o(.data)
    .data                                    0x2000002f   Section        1  stepmotor.o(.data)
    .data                                    0x20000030   Section       15  uart.o(.data)
    .data                                    0x2000003f   Section        3  function.o(.data)
    .data                                    0x20000044   Section        4  protect.o(.data)
    u16_ErrRunCount                          0x20000044   Data           4  protect.o(.data)
    .data                                    0x20000048   Section        1  commmotdrv.o(.data)
    .data                                    0x20000049   Section        1  cmdin.o(.data)
    U8_CmdChkCount                           0x20000049   Data           1  cmdin.o(.data)
    .data                                    0x2000004c   Section        8  fourway.o(.data)
    .data                                    0x20000054   Section        8  wpmotor.o(.data)
    .data                                    0x2000005c   Section        8  uvc.o(.data)
    .data                                    0x20000064   Section       29  lowpower.o(.data)
    .data                                    0x20000081   Section        1  eaheater.o(.data)
    .data                                    0x20000084   Section        8  dcfan.o(.data)
    .data                                    0x2000008c   Section        2  twifi.o(.data)
    Add1                                     0x2000008c   Data           1  twifi.o(.data)
    u8_TempFSetBak                           0x2000008d   Data           1  twifi.o(.data)
    .bss                                     0x20000090   Section      322  eep24c02.o(.bss)
    .bss                                     0x200001d4   Section       48  ad.o(.bss)
    .bss                                     0x20000204   Section      656  ad_app.o(.bss)
    .bss                                     0x20000494   Section       16  stepmotor.o(.bss)
    .bss                                     0x200004a4   Section       20  swing.o(.bss)
    .bss                                     0x200004b8   Section      720  uart.o(.bss)
    .bss                                     0x20000788   Section       22  uart_app.o(.bss)
    .bss                                     0x200007a0   Section       48  function.o(.bss)
    .bss                                     0x200007d0   Section       23  remember.o(.bss)
    u8_lstBuf                                0x200007dc   Data          11  remember.o(.bss)
    .bss                                     0x200007e8   Section       28  protect.o(.bss)
    .bss                                     0x20000804   Section       36  defrost.o(.bss)
    .bss                                     0x20000828   Section       80  commmotdrv.o(.bss)
    .bss                                     0x20000878   Section       38  commdisp.o(.bss)
    .bss                                     0x2000089e   Section       12  cmdin.o(.bss)
    .bss                                     0x200008aa   Section       24  cmdout.o(.bss)
    .bss                                     0x200008c4   Section       64  comp.o(.bss)
    .bss                                     0x20000904   Section       60  fan.o(.bss)
    .bss                                     0x20000940   Section       12  timer.o(.bss)
    .bss                                     0x2000094c   Section      140  tempr.o(.bss)
    .bss                                     0x200009d8   Section       20  waterbox.o(.bss)
    .bss                                     0x200009ec   Section      124  twifi.o(.bss)
    .bss                                     0x20000a68   Section       96  libspace.o(.bss)
    HEAP                                     0x20000ac8   Section        0  startup_es8h018x.o(HEAP)
    STACK                                    0x20000ac8   Section     1024  startup_es8h018x.o(STACK)
    Heap_Mem                                 0x20000ac8   Data           0  startup_es8h018x.o(HEAP)
    Stack_Mem                                0x20000ac8   Data        1024  startup_es8h018x.o(STACK)
    __initial_sp                             0x20000ec8   Data           0  startup_es8h018x.o(STACK)

    Global Symbols

    Symbol Name                              Value     Ov Type        Size  Object(Section)

    BuildAttributes$$THM_ISAv3M$S$PE$A:L22$X:L11$S22$IEEE1$IW$USESV6$~STKCKD$USESV7$~SHL$OSPACE$ROPI$EBA8$UX$STANDARDLIB$REQ8$PRES8$EABIv2 0x00000000   Number         0  anon$$obj.o ABSOLUTE
    __ARM_use_no_argv                        0x00000000   Number         0  main.o ABSOLUTE
    __Vectors                                0x00000000   Data           4  startup_es8h018x.o(RESET)
    __ARM_exceptions_init                     - Undefined Weak Reference
    __alloca_initialize                       - Undefined Weak Reference
    __arm_fini_                               - Undefined Weak Reference
    __arm_preinit_                            - Undefined Weak Reference
    __cpp_initialize__aeabi_                  - Undefined Weak Reference
    __cxa_finalize                            - Undefined Weak Reference
    __rt_locale                               - Undefined Weak Reference
    __sigvec_lookup                           - Undefined Weak Reference
    _atexit_init                              - Undefined Weak Reference
    _call_atexit_fns                          - Undefined Weak Reference
    _clock_init                               - Undefined Weak Reference
    _fp_trap_init                             - Undefined Weak Reference
    _fp_trap_shutdown                         - Undefined Weak Reference
    _get_lc_collate                           - Undefined Weak Reference
    _get_lc_ctype                             - Undefined Weak Reference
    _get_lc_monetary                          - Undefined Weak Reference
    _get_lc_numeric                           - Undefined Weak Reference
    _get_lc_time                              - Undefined Weak Reference
    _getenv_init                              - Undefined Weak Reference
    _handle_redirection                       - Undefined Weak Reference
    _init_alloc                               - Undefined Weak Reference
    _init_user_alloc                          - Undefined Weak Reference
    _initio                                   - Undefined Weak Reference
    _rand_init                                - Undefined Weak Reference
    _signal_finish                            - Undefined Weak Reference
    _signal_init                              - Undefined Weak Reference
    _terminate_alloc                          - Undefined Weak Reference
    _terminate_user_alloc                     - Undefined Weak Reference
    _terminateio                              - Undefined Weak Reference
    __main                                   0x000000c1   Thumb Code     8  __main.o(!!!main)
    __scatterload                            0x000000c9   Thumb Code     0  __scatter.o(!!!scatter)
    __scatterload_rt2                        0x000000c9   Thumb Code    52  __scatter.o(!!!scatter)
    __scatterload_rt2_thumb_only             0x000000c9   Thumb Code     0  __scatter.o(!!!scatter)
    __scatterload_null                       0x000000d9   Thumb Code     0  __scatter.o(!!!scatter)
    __scatterload_copy                       0x00000105   Thumb Code    26  __scatter_copy.o(!!handler_copy)
    __scatterload_zeroinit                   0x00000121   Thumb Code    28  __scatter_zi.o(!!handler_zi)
    __rt_lib_init                            0x0000013d   Thumb Code     0  libinit.o(.ARM.Collect$$libinit$$00000000)
    __rt_lib_init_alloca_1                   0x0000013f   Thumb Code     0  libinit2.o(.ARM.Collect$$libinit$$0000002E)
    __rt_lib_init_argv_1                     0x0000013f   Thumb Code     0  libinit2.o(.ARM.Collect$$libinit$$0000002C)
    __rt_lib_init_atexit_1                   0x0000013f   Thumb Code     0  libinit2.o(.ARM.Collect$$libinit$$0000001B)
    __rt_lib_init_clock_1                    0x0000013f   Thumb Code     0  libinit2.o(.ARM.Collect$$libinit$$00000021)
    __rt_lib_init_cpp_1                      0x0000013f   Thumb Code     0  libinit2.o(.ARM.Collect$$libinit$$00000032)
    __rt_lib_init_exceptions_1               0x0000013f   Thumb Code     0  libinit2.o(.ARM.Collect$$libinit$$00000030)
    __rt_lib_init_fp_1                       0x0000013f   Thumb Code     0  libinit2.o(.ARM.Collect$$libinit$$00000002)
    __rt_lib_init_fp_trap_1                  0x0000013f   Thumb Code     0  libinit2.o(.ARM.Collect$$libinit$$0000001F)
    __rt_lib_init_getenv_1                   0x0000013f   Thumb Code     0  libinit2.o(.ARM.Collect$$libinit$$00000023)
    __rt_lib_init_heap_1                     0x0000013f   Thumb Code     0  libinit2.o(.ARM.Collect$$libinit$$0000000A)
    __rt_lib_init_lc_collate_1               0x0000013f   Thumb Code     0  libinit2.o(.ARM.Collect$$libinit$$00000011)
    __rt_lib_init_lc_ctype_1                 0x0000013f   Thumb Code     0  libinit2.o(.ARM.Collect$$libinit$$00000013)
    __rt_lib_init_lc_monetary_1              0x0000013f   Thumb Code     0  libinit2.o(.ARM.Collect$$libinit$$00000015)
    __rt_lib_init_lc_numeric_1               0x0000013f   Thumb Code     0  libinit2.o(.ARM.Collect$$libinit$$00000017)
    __rt_lib_init_lc_time_1                  0x0000013f   Thumb Code     0  libinit2.o(.ARM.Collect$$libinit$$00000019)
    __rt_lib_init_preinit_1                  0x0000013f   Thumb Code     0  libinit2.o(.ARM.Collect$$libinit$$00000004)
    __rt_lib_init_rand_1                     0x0000013f   Thumb Code     0  libinit2.o(.ARM.Collect$$libinit$$0000000E)
    __rt_lib_init_return                     0x0000013f   Thumb Code     0  libinit2.o(.ARM.Collect$$libinit$$00000033)
    __rt_lib_init_signal_1                   0x0000013f   Thumb Code     0  libinit2.o(.ARM.Collect$$libinit$$0000001D)
    __rt_lib_init_stdio_1                    0x0000013f   Thumb Code     0  libinit2.o(.ARM.Collect$$libinit$$00000025)
    __rt_lib_init_user_alloc_1               0x0000013f   Thumb Code     0  libinit2.o(.ARM.Collect$$libinit$$0000000C)
    __rt_lib_shutdown                        0x00000141   Thumb Code     0  libshutdown.o(.ARM.Collect$$libshutdown$$00000000)
    __rt_lib_shutdown_cpp_1                  0x00000143   Thumb Code     0  libshutdown2.o(.ARM.Collect$$libshutdown$$00000004)
    __rt_lib_shutdown_fini_1                 0x00000143   Thumb Code     0  libshutdown2.o(.ARM.Collect$$libshutdown$$00000002)
    __rt_lib_shutdown_fp_trap_1              0x00000143   Thumb Code     0  libshutdown2.o(.ARM.Collect$$libshutdown$$00000009)
    __rt_lib_shutdown_heap_1                 0x00000143   Thumb Code     0  libshutdown2.o(.ARM.Collect$$libshutdown$$00000011)
    __rt_lib_shutdown_return                 0x00000143   Thumb Code     0  libshutdown2.o(.ARM.Collect$$libshutdown$$00000012)
    __rt_lib_shutdown_signal_1               0x00000143   Thumb Code     0  libshutdown2.o(.ARM.Collect$$libshutdown$$0000000C)
    __rt_lib_shutdown_stdio_1                0x00000143   Thumb Code     0  libshutdown2.o(.ARM.Collect$$libshutdown$$00000006)
    __rt_lib_shutdown_user_alloc_1           0x00000143   Thumb Code     0  libshutdown2.o(.ARM.Collect$$libshutdown$$0000000E)
    __rt_entry                               0x00000145   Thumb Code     0  __rtentry.o(.ARM.Collect$$rtentry$$00000000)
    __rt_entry_presh_1                       0x00000145   Thumb Code     0  __rtentry2.o(.ARM.Collect$$rtentry$$00000002)
    __rt_entry_sh                            0x00000145   Thumb Code     0  __rtentry4.o(.ARM.Collect$$rtentry$$00000004)
    __rt_entry_li                            0x0000014b   Thumb Code     0  __rtentry2.o(.ARM.Collect$$rtentry$$0000000A)
    __rt_entry_postsh_1                      0x0000014b   Thumb Code     0  __rtentry2.o(.ARM.Collect$$rtentry$$00000009)
    __rt_entry_main                          0x0000014f   Thumb Code     0  __rtentry2.o(.ARM.Collect$$rtentry$$0000000D)
    __rt_entry_postli_1                      0x0000014f   Thumb Code     0  __rtentry2.o(.ARM.Collect$$rtentry$$0000000C)
    __rt_exit                                0x00000157   Thumb Code     0  rtexit.o(.ARM.Collect$$rtexit$$00000000)
    __rt_exit_ls                             0x00000159   Thumb Code     0  rtexit2.o(.ARM.Collect$$rtexit$$00000003)
    __rt_exit_prels_1                        0x00000159   Thumb Code     0  rtexit2.o(.ARM.Collect$$rtexit$$00000002)
    __rt_exit_exit                           0x0000015d   Thumb Code     0  rtexit2.o(.ARM.Collect$$rtexit$$00000004)
    __aeabi_memcpy4                          0x00000165   Thumb Code    56  rt_memcpy.o(.emb_text)
    __aeabi_memcpy8                          0x00000165   Thumb Code     0  rt_memcpy.o(.emb_text)
    Reset_IRQHandler                         0x0000019d   Thumb Code     8  startup_es8h018x.o(.text)
    ADC_IRQHandler                           0x000001af   Thumb Code     0  startup_es8h018x.o(.text)
    CCM_LVD_PLK_IRQHandler                   0x000001af   Thumb Code     0  startup_es8h018x.o(.text)
    I2C0_IRQHandler                          0x000001af   Thumb Code     0  startup_es8h018x.o(.text)
    IWDT_IRQHandler                          0x000001af   Thumb Code     0  startup_es8h018x.o(.text)
    KINT_IRQHandler                          0x000001af   Thumb Code     0  startup_es8h018x.o(.text)
    PINT0_IRQHandler                         0x000001af   Thumb Code     0  startup_es8h018x.o(.text)
    PINT10_IRQHandler                        0x000001af   Thumb Code     0  startup_es8h018x.o(.text)
    PINT11_IRQHandler                        0x000001af   Thumb Code     0  startup_es8h018x.o(.text)
    PINT1_IRQHandler                         0x000001af   Thumb Code     0  startup_es8h018x.o(.text)
    PINT2_IRQHandler                         0x000001af   Thumb Code     0  startup_es8h018x.o(.text)
    PINT3_IRQHandler                         0x000001af   Thumb Code     0  startup_es8h018x.o(.text)
    PINT4_IRQHandler                         0x000001af   Thumb Code     0  startup_es8h018x.o(.text)
    PINT5_IRQHandler                         0x000001af   Thumb Code     0  startup_es8h018x.o(.text)
    PINT6_IRQHandler                         0x000001af   Thumb Code     0  startup_es8h018x.o(.text)
    PINT7_IRQHandler                         0x000001af   Thumb Code     0  startup_es8h018x.o(.text)
    PINT8_IRQHandler                         0x000001af   Thumb Code     0  startup_es8h018x.o(.text)
    PINT9_IRQHandler                         0x000001af   Thumb Code     0  startup_es8h018x.o(.text)
    SPI0_IRQHandler                          0x000001af   Thumb Code     0  startup_es8h018x.o(.text)
    T16N1_IRQHandler                         0x000001af   Thumb Code     0  startup_es8h018x.o(.text)
    T16N2_IRQHandler                         0x000001af   Thumb Code     0  startup_es8h018x.o(.text)
    T16N3_IRQHandler                         0x000001af   Thumb Code     0  startup_es8h018x.o(.text)
    T16N4_IRQHandler                         0x000001af   Thumb Code     0  startup_es8h018x.o(.text)
    T16N5_IRQHandler                         0x000001af   Thumb Code     0  startup_es8h018x.o(.text)
    T32N0_IRQHandler                         0x000001af   Thumb Code     0  startup_es8h018x.o(.text)
    UART1_IRQHandler                         0x000001af   Thumb Code     0  startup_es8h018x.o(.text)
    UART3_IRQHandler                         0x000001af   Thumb Code     0  startup_es8h018x.o(.text)
    UART5_IRQHandler                         0x000001af   Thumb Code     0  startup_es8h018x.o(.text)
    WWDT_IRQHandler                          0x000001af   Thumb Code     0  startup_es8h018x.o(.text)
    __user_initial_stackheap                 0x000001b1   Thumb Code     0  startup_es8h018x.o(.text)
    _memset_w                                0x000001d1   Thumb Code    26  rt_memclr.o(.text)
    _memset                                  0x000001eb   Thumb Code    30  rt_memclr.o(.text)
    __aeabi_memclr                           0x00000209   Thumb Code     4  rt_memclr.o(.text)
    __rt_memclr                              0x00000209   Thumb Code     0  rt_memclr.o(.text)
    __aeabi_memclr4                          0x0000020d   Thumb Code     0  rt_memclr.o(.text)
    __aeabi_memclr8                          0x0000020d   Thumb Code     0  rt_memclr.o(.text)
    __rt_memclr_w                            0x0000020d   Thumb Code     4  rt_memclr.o(.text)
    __aeabi_uidiv                            0x00000211   Thumb Code     0  aeabi_sdiv.o(.text)
    __aeabi_uidivmod                         0x00000211   Thumb Code    20  aeabi_sdiv.o(.text)
    __aeabi_idiv                             0x00000225   Thumb Code     0  aeabi_sdiv.o(.text)
    __aeabi_idivmod                          0x00000225   Thumb Code   326  aeabi_sdiv.o(.text)
    __use_two_region_memory                  0x0000036b   Thumb Code     2  heapauxi.o(.text)
    __rt_heap_escrow$2region                 0x0000036d   Thumb Code     2  heapauxi.o(.text)
    __rt_heap_expand$2region                 0x0000036f   Thumb Code     2  heapauxi.o(.text)
    __user_setup_stackheap                   0x00000371   Thumb Code    62  sys_stackheap_outer.o(.text)
    exit                                     0x000003af   Thumb Code    16  exit.o(.text)
    __user_libspace                          0x000003c1   Thumb Code     8  libspace.o(.text)
    __user_perproc_libspace                  0x000003c1   Thumb Code     0  libspace.o(.text)
    __user_perthread_libspace                0x000003c1   Thumb Code     0  libspace.o(.text)
    _sys_exit                                0x000003c9   Thumb Code     8  sys_exit.o(.text)
    __I$use$semihosting                      0x000003d5   Thumb Code     0  use_no_semi.o(.text)
    __use_no_semihosting_swi                 0x000003d5   Thumb Code     2  use_no_semi.o(.text)
    __semihosting_library_function           0x000003d7   Thumb Code     0  indicate_semi.o(.text)
    ADC_ClearIFStatus                        0x000003d9   Thumb Code    10  lib_adc.o(i.ADC_ClearIFStatus)
    ADC_GetConvStatus                        0x000003e9   Thumb Code    22  lib_adc.o(i.ADC_GetConvStatus)
    ADC_GetConvValue                         0x00000405   Thumb Code    92  lib_adc.o(i.ADC_GetConvValue)
    ADC_Init                                 0x00000465   Thumb Code   246  lib_adc.o(i.ADC_Init)
    App_ADCGetTemperature                    0x00000561   Thumb Code   228  ad_app.o(i.App_ADCGetTemperature)
    App_ADCLookupTemperatureTable            0x00000655   Thumb Code   154  ad_app.o(i.App_ADCLookupTemperatureTable)
    App_AdValueDiffer_Check                  0x00000715   Thumb Code    64  ad_app.o(i.App_AdValueDiffer_Check)
    App_Comp_AntiDew                         0x0000075d   Thumb Code    32  comp.o(i.App_Comp_AntiDew)
    App_Comp_ForceFun                        0x00000785   Thumb Code    64  comp.o(i.App_Comp_ForceFun)
    App_Comp_InDoorFan                       0x000007d9   Thumb Code   256  comp.o(i.App_Comp_InDoorFan)
    App_Comp_PerTest                         0x000008ed   Thumb Code   230  comp.o(i.App_Comp_PerTest)
    App_Comp_ProCon                          0x000009e9   Thumb Code   914  comp.o(i.App_Comp_ProCon)
    App_Comp_RunHzInitIndex                  0x00000d95   Thumb Code   536  comp.o(i.App_Comp_RunHzInitIndex)
    App_Comp_Sleep                           0x00000fc9   Thumb Code    98  comp.o(i.App_Comp_Sleep)
    App_Comp_T1TSDelta                       0x00001039   Thumb Code  1076  comp.o(i.App_Comp_T1TSDelta)
    App_Comp_T2Heat                          0x00001471   Thumb Code   326  comp.o(i.App_Comp_T2Heat)
    App_Comp_T4                              0x000015d1   Thumb Code  1170  comp.o(i.App_Comp_T4)
    App_Comp_T4_OffJudge                     0x00001a71   Thumb Code   536  comp.o(i.App_Comp_T4_OffJudge)
    App_Comp_WatFull                         0x00001c9d   Thumb Code    54  comp.o(i.App_Comp_WatFull)
    App_Event_100ms                          0x00001cdd   Thumb Code  1184  function.o(i.App_Event_100ms)
    App_Event_10ms                           0x0000218d   Thumb Code     2  function.o(i.App_Event_10ms)
    App_Fan_InDoor                           0x00002191   Thumb Code  1604  fan.o(i.App_Fan_InDoor)
    App_Fan_OutDoor                          0x000027f9   Thumb Code   404  fan.o(i.App_Fan_OutDoor)
    App_Function                             0x000029a5   Thumb Code   116  function.o(i.App_Function)
    App_LookUpTemperature                    0x00002a1d   Thumb Code   320  ad_app.o(i.App_LookUpTemperature)
    App_NTC_Check                            0x00002b7d   Thumb Code   180  ad_app.o(i.App_NTC_Check)
    App_Status_BussCheck                     0x00002c49   Thumb Code   442  function.o(i.App_Status_BussCheck)
    App_Status_Init                          0x00002e2d   Thumb Code   424  function.o(i.App_Status_Init)
    App_Status_Off                           0x00002fe9   Thumb Code   206  function.o(i.App_Status_Off)
    App_Status_On                            0x000030dd   Thumb Code  4334  function.o(i.App_Status_On)
    App_Status_SelCheck                      0x000041d1   Thumb Code     2  function.o(i.App_Status_SelCheck)
    App_StepMotor_Run                        0x000041d5   Thumb Code   436  stepmotor_app.o(i.App_StepMotor_Run)
    App_Switch                               0x000043a5   Thumb Code    50  switch.o(i.App_Switch)
    App_TCLModule_CtoF                       0x000043e1   Thumb Code   178  twifi.o(i.App_TCLModule_CtoF)
    App_TCLModule_Fadd1                      0x00004499   Thumb Code    72  twifi.o(i.App_TCLModule_Fadd1)
    App_TCLModule_Master_Info                0x000044e1   Thumb Code  1310  twifi.o(i.App_TCLModule_Master_Info)
    App_TCLModule_Slave_Info                 0x00004a19   Thumb Code  3582  twifi.o(i.App_TCLModule_Slave_Info)
    App_Uart0_Read_Frame                     0x0000583d   Thumb Code   440  uart_app.o(i.App_Uart0_Read_Frame)
    App_Uart0_Write_Frame                    0x00005a09   Thumb Code   222  uart_app.o(i.App_Uart0_Write_Frame)
    App_Uart4_Read_Frame                     0x00005afd   Thumb Code   504  uart_app.o(i.App_Uart4_Read_Frame)
    App_Uart4_Write_Frame                    0x00005d0d   Thumb Code   228  uart_app.o(i.App_Uart4_Write_Frame)
    BaseRunTx_Byte10_InDoorProtect1          0x00005e0d   Thumb Code   208  commmotdrv.o(i.BaseRunTx_Byte10_InDoorProtect1)
    BaseRunTx_Byte11_InDoorProtect2          0x00005efd   Thumb Code   148  commmotdrv.o(i.BaseRunTx_Byte11_InDoorProtect2)
    BaseRunTx_Byte12_InDoorProtect3          0x00005f99   Thumb Code   292  commmotdrv.o(i.BaseRunTx_Byte12_InDoorProtect3)
    BaseRunTx_Byte13_InDoorFanSpeedDiv10     0x000060cd   Thumb Code    16  commmotdrv.o(i.BaseRunTx_Byte13_InDoorFanSpeedDiv10)
    BaseRunTx_Byte14_TempCoil1               0x000060e1   Thumb Code    68  commmotdrv.o(i.BaseRunTx_Byte14_TempCoil1)
    BaseRunTx_Byte15_TempCoil2               0x0000612d   Thumb Code    68  commmotdrv.o(i.BaseRunTx_Byte15_TempCoil2)
    BaseRunTx_Byte16_TempExhaust             0x00006179   Thumb Code    46  commmotdrv.o(i.BaseRunTx_Byte16_TempExhaust)
    BaseRunTx_Byte17_InDoorStatus            0x000061ad   Thumb Code   346  commmotdrv.o(i.BaseRunTx_Byte17_InDoorStatus)
    BaseRunTx_Byte5_InDoorRunMode            0x00006319   Thumb Code   172  commmotdrv.o(i.BaseRunTx_Byte5_InDoorRunMode)
    BaseRunTx_Byte6_OutDoorTargetFreq        0x000063d1   Thumb Code     6  commmotdrv.o(i.BaseRunTx_Byte6_OutDoorTargetFreq)
    BaseRunTx_Byte7_OutDoorTargetFreqDotMul60 0x000063dd   Thumb Code    68  commmotdrv.o(i.BaseRunTx_Byte7_OutDoorTargetFreqDotMul60)
    BaseRunTx_Byte8_InDoorTempSet            0x00006429   Thumb Code    26  commmotdrv.o(i.BaseRunTx_Byte8_InDoorTempSet)
    BaseRunTx_Byte9_InDoorTemp               0x0000644d   Thumb Code    68  commmotdrv.o(i.BaseRunTx_Byte9_InDoorTemp)
    Case_StepMotor_Pause                     0x00006499   Thumb Code    32  stepmotor_app.o(i.Case_StepMotor_Pause)
    Case_StepMotor_StepTime                  0x000064c1   Thumb Code    36  stepmotor_app.o(i.Case_StepMotor_StepTime)
    CommDisp_Check8                          0x000064e9   Thumb Code    34  commdisp.o(i.CommDisp_Check8)
    CommMotDrv_BaseRunRx                     0x0000650d   Thumb Code   750  commmotdrv.o(i.CommMotDrv_BaseRunRx)
    CommMotDrv_BaseRunTx                     0x0000681d   Thumb Code   132  commmotdrv.o(i.CommMotDrv_BaseRunTx)
    CommMotDrv_Con                           0x000068a5   Thumb Code   442  commmotdrv.o(i.CommMotDrv_Con)
    CommMotDrv_InfoCon                       0x00006a65   Thumb Code    62  commmotdrv.o(i.CommMotDrv_InfoCon)
    CommMotDrv_ReqSetRx                      0x00006ab1   Thumb Code   116  commmotdrv.o(i.CommMotDrv_ReqSetRx)
    CommMotDrv_ReqSetTx                      0x00006b29   Thumb Code   142  commmotdrv.o(i.CommMotDrv_ReqSetTx)
    ConfigIO_Input                           0x00006bc1   Thumb Code    28  init_es8h018x_ex8h0163.o(i.ConfigIO_Input)
    ConfigIO_Output                          0x00006bdd   Thumb Code    26  init_es8h018x_ex8h0163.o(i.ConfigIO_Output)
    ConfigIO_PullUpDisable                   0x00006bf7   Thumb Code    18  init_es8h018x_ex8h0163.o(i.ConfigIO_PullUpDisable)
    ConfigIO_PullUpEnable                    0x00006c09   Thumb Code    18  init_es8h018x_ex8h0163.o(i.ConfigIO_PullUpEnable)
    Defrost_Init                             0x00006c1d   Thumb Code    12  defrost.o(i.Defrost_Init)
    DeviceClockAllEnable                     0x00006c2d   Thumb Code    44  lib_scu.o(i.DeviceClockAllEnable)
    DisplayBoardCommandCheck                 0x00006c61   Thumb Code   312  cmdin.o(i.DisplayBoardCommandCheck)
    DisplayBoardCommandUpdate                0x00006db1   Thumb Code   346  cmdout.o(i.DisplayBoardCommandUpdate)
    DisplayBoardTurnOn                       0x00006f15   Thumb Code    78  cmdin.o(i.DisplayBoardTurnOn)
    DisplayBoard_Byte12_Con                  0x00006f8d   Thumb Code    30  cmdin.o(i.DisplayBoard_Byte12_Con)
    DisplayBoard_Byte12_Update               0x00006fb5   Thumb Code    48  cmdout.o(i.DisplayBoard_Byte12_Update)
    Drv_Fan_OutDoor                          0x00006ff1   Thumb Code     2  fan.o(i.Drv_Fan_OutDoor)
    Func_FourWay                             0x00006ff3   Thumb Code    12  fourway.o(i.Func_FourWay)
    NMI_IRQHandler                           0x00006fff   Thumb Code     2  irqhandler.o(i.NMI_IRQHandler)
    U8_ad_channel_table                      0x00007000   Data           4  ad.o(.ARM.__AT_0x00007000)
    Defrost_Con                              0x00007005   Thumb Code  1128  defrost.o(i.Defrost_Con)
    DisplayBoard_Byte10_Con                  0x0000747d   Thumb Code   158  cmdin.o(i.DisplayBoard_Byte10_Con)
    DisplayBoard_Byte10_Update               0x00007535   Thumb Code   172  cmdout.o(i.DisplayBoard_Byte10_Update)
    Func_UVC                                 0x000075f1   Thumb Code    12  uvc.o(i.Func_UVC)
    HardFault_IRQHandler                     0x000075fd   Thumb Code     4  irqhandler.o(i.HardFault_IRQHandler)
    U16_adc_temproom_table                   0x00007600   Data         504  ad_app.o(.ARM.__AT_0x00007600)
    DisplayBoard_Byte13_Con                  0x000077f9   Thumb Code    30  cmdin.o(i.DisplayBoard_Byte13_Con)
    DisplayBoard_Byte13_Update               0x00007825   Thumb Code    48  cmdout.o(i.DisplayBoard_Byte13_Update)
    Func_Fan                                 0x00007861   Thumb Code    28  fan.o(i.Func_Fan)
    PendSV_IRQHandler                        0x0000787d   Thumb Code     2  irqhandler.o(i.PendSV_IRQHandler)
    Remember_EE_Dat_Init                     0x0000787f   Thumb Code     2  remember.o(i.Remember_EE_Dat_Init)
    U16_adc_tempcoil_table                   0x00007880   Data         504  ad_app.o(.ARM.__AT_0x00007880)
    DisplayBoard_Byte14_Con                  0x00007a79   Thumb Code    82  cmdin.o(i.DisplayBoard_Byte14_Con)
    Drv_FourWay                              0x00007ad9   Thumb Code    30  fourway.o(i.Drv_FourWay)
    SVC_IRQHandler                           0x00007afd   Thumb Code     2  irqhandler.o(i.SVC_IRQHandler)
    Sys_Run_Func4_Per100ms                   0x00007aff   Thumb Code     2  func.o(i.Sys_Run_Func4_Per100ms)
    U16_adc_tempexhaust_table                0x00007b00   Data         544  ad_app.o(.ARM.__AT_0x00007B00)
    DisplayBoardTurnOff                      0x00007d21   Thumb Code   372  cmdin.o(i.DisplayBoardTurnOff)
    DisplayBoard_Byte14_Update               0x00007ebd   Thumb Code    42  cmdout.o(i.DisplayBoard_Byte14_Update)
    DisplayBoard_Byte15_Con                  0x00007ef1   Thumb Code   222  cmdin.o(i.DisplayBoard_Byte15_Con)
    Func_Temprature                          0x00007fe1   Thumb Code    24  tempr.o(i.Func_Temprature)
    SysTick_IRQHandler                       0x00007ff9   Thumb Code     8  irqhandler.o(i.SysTick_IRQHandler)
    U8_stepmotor_CW_table                    0x00008000   Data           8  stepmotor.o(.ARM.__AT_0x00008000)
    DisplayBoard_Byte11_Con                  0x00008009   Thumb Code   490  cmdin.o(i.DisplayBoard_Byte11_Con)
    DisplayBoard_Byte11_Update               0x0000821d   Thumb Code   554  cmdout.o(i.DisplayBoard_Byte11_Update)
    DisplayBoard_Byte15_Update               0x00008485   Thumb Code    86  cmdout.o(i.DisplayBoard_Byte15_Update)
    DisplayBoard_Byte16_Update               0x000084ed   Thumb Code    42  cmdout.o(i.DisplayBoard_Byte16_Update)
    DisplayBoard_Byte17_Update               0x00008521   Thumb Code   156  cmdout.o(i.DisplayBoard_Byte17_Update)
    DisplayBoard_Byte18_Update               0x000085cd   Thumb Code   204  cmdout.o(i.DisplayBoard_Byte18_Update)
    DisplayBoard_Byte19_Update               0x000086ad   Thumb Code    48  cmdout.o(i.DisplayBoard_Byte19_Update)
    DisplayBoard_Byte20_Update               0x000086e9   Thumb Code    66  cmdout.o(i.DisplayBoard_Byte20_Update)
    DisplayBoard_Byte21_Update               0x0000873d   Thumb Code    66  cmdout.o(i.DisplayBoard_Byte21_Update)
    DisplayBoard_Byte22_Update               0x00008791   Thumb Code    48  cmdout.o(i.DisplayBoard_Byte22_Update)
    DisplayBoard_Byte23_Update               0x000087cd   Thumb Code    48  cmdout.o(i.DisplayBoard_Byte23_Update)
    DisplayBoard_Byte24_Update               0x00008809   Thumb Code    54  cmdout.o(i.DisplayBoard_Byte24_Update)
    DisplayBoard_Byte25_Update               0x0000884d   Thumb Code    54  cmdout.o(i.DisplayBoard_Byte25_Update)
    DisplayBoard_Byte26_Update               0x00008891   Thumb Code    44  cmdout.o(i.DisplayBoard_Byte26_Update)
    DisplayBoard_Byte27_Update               0x000088c9   Thumb Code    76  cmdout.o(i.DisplayBoard_Byte27_Update)
    DisplayBoard_Byte5_Con                   0x00008921   Thumb Code   490  cmdin.o(i.DisplayBoard_Byte5_Con)
    DisplayBoard_Byte5_Update                0x00008b29   Thumb Code   414  cmdout.o(i.DisplayBoard_Byte5_Update)
    DisplayBoard_Byte6_Con                   0x00008cdd   Thumb Code  1068  cmdin.o(i.DisplayBoard_Byte6_Con)
    DisplayBoard_Byte6_Update                0x00009109   Thumb Code   296  cmdout.o(i.DisplayBoard_Byte6_Update)
    DisplayBoard_Byte7_Con                   0x00009249   Thumb Code    86  cmdin.o(i.DisplayBoard_Byte7_Con)
    DisplayBoard_Byte7_Update                0x000092b5   Thumb Code   198  cmdout.o(i.DisplayBoard_Byte7_Update)
    DisplayBoard_Byte8_Con                   0x00009391   Thumb Code   142  cmdin.o(i.DisplayBoard_Byte8_Con)
    DisplayBoard_Byte8_Update                0x00009431   Thumb Code    58  cmdout.o(i.DisplayBoard_Byte8_Update)
    DisplayBoard_Byte9_Con                   0x00009479   Thumb Code   142  cmdin.o(i.DisplayBoard_Byte9_Con)
    DisplayBoard_Byte9_Update                0x00009519   Thumb Code    98  cmdout.o(i.DisplayBoard_Byte9_Update)
    Drv_Comp                                 0x00009589   Thumb Code   394  comp.o(i.Drv_Comp)
    Drv_Fan_InDoor                           0x0000972d   Thumb Code   708  fan.o(i.Drv_Fan_InDoor)
    Drv_StepMotor                            0x00009a05   Thumb Code   108  stepmotor.o(i.Drv_StepMotor)
    Drv_Switch_Scan                          0x00009a75   Thumb Code    40  switch.o(i.Drv_Switch_Scan)
    Drv_UVC                                  0x00009aa1   Thumb Code    30  uvc.o(i.Drv_UVC)
    Drv_WPMotor                              0x00009ac5   Thumb Code    30  wpmotor.o(i.Drv_WPMotor)
    F_CRC16                                  0x00009ae9   Thumb Code    82  uart_app.o(i.F_CRC16)
    Func_Comp                                0x00009b49   Thumb Code    50  comp.o(i.Func_Comp)
    Func_DCFan                               0x00009b81   Thumb Code   124  dcfan.o(i.Func_DCFan)
    Func_EAHeater                            0x00009c05   Thumb Code   118  eaheater.o(i.Func_EAHeater)
    Func_HumiCSetInit                        0x00009c85   Thumb Code    38  function.o(i.Func_HumiCSetInit)
    Func_LowPower                            0x00009cb5   Thumb Code  1236  lowpower.o(i.Func_LowPower)
    Func_Protect                             0x0000a199   Thumb Code   156  protect.o(i.Func_Protect)
    Func_WPMotor                             0x0000a241   Thumb Code    12  wpmotor.o(i.Func_WPMotor)
    Func_WaterBox                            0x0000a24d   Thumb Code   206  waterbox.o(i.Func_WaterBox)
    Func_WiFiPowEn                           0x0000a325   Thumb Code   102  twifi.o(i.Func_WiFiPowEn)
    GPIOA_ResetBit                           0x0000a391   Thumb Code    10  lib_gpio.o(i.GPIOA_ResetBit)
    GPIOA_SetBit                             0x0000a3a1   Thumb Code    10  lib_gpio.o(i.GPIOA_SetBit)
    GPIOB_ResetBit                           0x0000a3b1   Thumb Code    10  lib_gpio.o(i.GPIOB_ResetBit)
    GPIOB_SetBit                             0x0000a3c1   Thumb Code    10  lib_gpio.o(i.GPIOB_SetBit)
    GPIO_Init                                0x0000a3d1   Thumb Code   164  lib_gpio.o(i.GPIO_Init)
    GPIO_Read                                0x0000a475   Thumb Code    28  lib_gpio.o(i.GPIO_Read)
    GPIO_SetDSRegFromPin                     0x0000a495   Thumb Code    86  lib_gpio.o(i.GPIO_SetDSRegFromPin)
    GPIO_SetDirRegFromPin                    0x0000a4f1   Thumb Code    58  lib_gpio.o(i.GPIO_SetDirRegFromPin)
    GPIO_SetFuncxRegFromPin                  0x0000a531   Thumb Code  1728  lib_gpio.o(i.GPIO_SetFuncxRegFromPin)
    GPIO_SetODERegFromPin                    0x0000abf5   Thumb Code    86  lib_gpio.o(i.GPIO_SetODERegFromPin)
    GPIO_SetPDERegFromPin                    0x0000ac51   Thumb Code    86  lib_gpio.o(i.GPIO_SetPDERegFromPin)
    GPIO_SetPUERegFromPin                    0x0000acad   Thumb Code    86  lib_gpio.o(i.GPIO_SetPUERegFromPin)
    GPIO_SetPinFLT                           0x0000ad09   Thumb Code    86  lib_gpio.o(i.GPIO_SetPinFLT)
    GPIO_SetPinType                          0x0000ad65   Thumb Code    86  lib_gpio.o(i.GPIO_SetPinType)
    GPIO_SetSingalTypeFromPin                0x0000adc1   Thumb Code    86  lib_gpio.o(i.GPIO_SetSingalTypeFromPin)
    IICM_Start                               0x0000ae2b   Thumb Code    52  eep24c02.o(i.IICM_Start)
    IICM_Stop                                0x0000ae5f   Thumb Code    40  eep24c02.o(i.IICM_Stop)
    IIC_Read_Byte                            0x0000ae87   Thumb Code    86  eep24c02.o(i.IIC_Read_Byte)
    IIC_Send_Byte                            0x0000aedd   Thumb Code    74  eep24c02.o(i.IIC_Send_Byte)
    IIC_SetAck                               0x0000af27   Thumb Code    40  eep24c02.o(i.IIC_SetAck)
    IIC_SetNoAck                             0x0000af4f   Thumb Code    40  eep24c02.o(i.IIC_SetNoAck)
    IIC_TestAck                              0x0000af77   Thumb Code    90  eep24c02.o(i.IIC_TestAck)
    Init_DCFan                               0x0000afd1   Thumb Code    26  dcfan.o(i.Init_DCFan)
    Init_EAHeater                            0x0000afeb   Thumb Code    26  eaheater.o(i.Init_EAHeater)
    Init_FourWay                             0x0000b005   Thumb Code    26  fourway.o(i.Init_FourWay)
    Init_LowPower                            0x0000b01f   Thumb Code    70  lowpower.o(i.Init_LowPower)
    Init_MCU_Gpio                            0x0000b065   Thumb Code    64  func.o(i.Init_MCU_Gpio)
    Init_MCU_System                          0x0000b0a5   Thumb Code    26  init_es8h018x_ex8h0163.o(i.Init_MCU_System)
    Init_Pin_WP_Enable                       0x0000b0bf   Thumb Code    26  remember.o(i.Init_Pin_WP_Enable)
    Init_UVC                                 0x0000b0d9   Thumb Code    26  uvc.o(i.Init_UVC)
    Init_WPMotor                             0x0000b0f3   Thumb Code    26  wpmotor.o(i.Init_WPMotor)
    Init_WiFiPowEn                           0x0000b10d   Thumb Code    26  twifi.o(i.Init_WiFiPowEn)
    Log_Ad                                   0x0000b129   Thumb Code   460  ad.o(i.Log_Ad)
    Log_Comp                                 0x0000b305   Thumb Code   956  comp.o(i.Log_Comp)
    Log_Fan_InDoor                           0x0000b701   Thumb Code   146  fan.o(i.Log_Fan_InDoor)
    Log_Fan_OutDoor                          0x0000b79d   Thumb Code   102  fan.o(i.Log_Fan_OutDoor)
    Log_FourWay                              0x0000b811   Thumb Code   266  fourway.o(i.Log_FourWay)
    Log_StepMotor                            0x0000b935   Thumb Code   356  stepmotor.o(i.Log_StepMotor)
    Log_StepMotor_SweepAuto                  0x0000baa5   Thumb Code   166  stepmotor.o(i.Log_StepMotor_SweepAuto)
    Log_Switch_Fd                            0x0000bb55   Thumb Code    88  switch.o(i.Log_Switch_Fd)
    Log_UVC                                  0x0000bbb1   Thumb Code   204  uvc.o(i.Log_UVC)
    Log_WPMotor                              0x0000bc91   Thumb Code   142  wpmotor.o(i.Log_WPMotor)
    Module_Init_Ad                           0x0000bd31   Thumb Code   154  ad.o(i.Module_Init_Ad)
    Module_Init_IICM                         0x0000bdd1   Thumb Code    54  eep24c02.o(i.Module_Init_IICM)
    Module_Init_StepMotor                    0x0000be0d   Thumb Code    92  stepmotor.o(i.Module_Init_StepMotor)
    Module_Init_Switch                       0x0000be69   Thumb Code    26  switch.o(i.Module_Init_Switch)
    Module_Init_Uart                         0x0000be83   Thumb Code    12  uart.o(i.Module_Init_Uart)
    Module_Init_Uart0                        0x0000be8f   Thumb Code    52  uart.o(i.Module_Init_Uart0)
    Module_Init_Uart4                        0x0000bec3   Thumb Code    52  uart.o(i.Module_Init_Uart4)
    NVIC_Init                                0x0000bef9   Thumb Code    94  lib_scs.o(i.NVIC_Init)
    PLLClock_Config                          0x0000bf5d   Thumb Code   532  lib_scu.o(i.PLLClock_Config)
    PortPin_Read                             0x0000c17d   Thumb Code    30  init_es8h018x_ex8h0163.o(i.PortPin_Read)
    Protect_InFanErr                         0x0000c19d   Thumb Code   198  protect.o(i.Protect_InFanErr)
    Protect_T2Cold                           0x0000c275   Thumb Code   446  protect.o(i.Protect_T2Cold)
    Protect_T3Cold                           0x0000c445   Thumb Code   426  protect.o(i.Protect_T3Cold)
    Protect_Tp                               0x0000c601   Thumb Code   366  protect.o(i.Protect_Tp)
    Read_24C02                               0x0000c77d   Thumb Code   114  eep24c02.o(i.Read_24C02)
    Remember_ReadEEFunc                      0x0000c7f1   Thumb Code   422  remember.o(i.Remember_ReadEEFunc)
    Remember_ReadEEPara                      0x0000c9c9   Thumb Code   250  remember.o(i.Remember_ReadEEPara)
    Remember_WriteEEFunc                     0x0000cacd   Thumb Code   704  remember.o(i.Remember_WriteEEFunc)
    Remember_WriteEEPara                     0x0000cdb5   Thumb Code  1100  remember.o(i.Remember_WriteEEPara)
    SCU_HRCReadyFlag                         0x0000d205   Thumb Code    22  lib_scu.o(i.SCU_HRCReadyFlag)
    SCU_SysClkSelect                         0x0000d221   Thumb Code    34  lib_scu.o(i.SCU_SysClkSelect)
    SCU_XTALReadyFlag                        0x0000d24d   Thumb Code    22  lib_scu.o(i.SCU_XTALReadyFlag)
    SaveDatToEEP                             0x0000d269   Thumb Code   558  remember.o(i.SaveDatToEEP)
    Swing_AntiDew                            0x0000d4c1   Thumb Code   332  swing.o(i.Swing_AntiDew)
    Swing_Con                                0x0000d631   Thumb Code   374  swing.o(i.Swing_Con)
    Swing_Sweep                              0x0000d7cd   Thumb Code    32  swing.o(i.Swing_Sweep)
    Switch_Scan                              0x0000d7f9   Thumb Code    36  switch.o(i.Switch_Scan)
    SysTickInit                              0x0000d81d   Thumb Code    46  systick.o(i.SysTickInit)
    SysTick_Init                             0x0000d859   Thumb Code    60  lib_scs.o(i.SysTick_Init)
    Sys_Run_Event_Per100ms                   0x0000d899   Thumb Code    76  main.o(i.Sys_Run_Event_Per100ms)
    Sys_Run_Event_Per10ms                    0x0000d8e9   Thumb Code    76  main.o(i.Sys_Run_Event_Per10ms)
    Sys_Run_Event_Per1ms                     0x0000d939   Thumb Code    54  main.o(i.Sys_Run_Event_Per1ms)
    Sys_Run_Func1_Per100ms                   0x0000d975   Thumb Code    32  func.o(i.Sys_Run_Func1_Per100ms)
    Sys_Run_Func1_Per10ms                    0x0000d999   Thumb Code    12  func.o(i.Sys_Run_Func1_Per10ms)
    Sys_Run_Func2_Per100ms                   0x0000d9a5   Thumb Code    32  func.o(i.Sys_Run_Func2_Per100ms)
    Sys_Run_Func2_Per10ms                    0x0000d9c9   Thumb Code    20  func.o(i.Sys_Run_Func2_Per10ms)
    Sys_Run_Func3_Per100ms                   0x0000d9dd   Thumb Code     8  func.o(i.Sys_Run_Func3_Per100ms)
    Sys_Run_Func3_Per10ms                    0x0000d9e5   Thumb Code    12  func.o(i.Sys_Run_Func3_Per10ms)
    Sys_Run_Func4_Per10ms                    0x0000d9f1   Thumb Code     8  func.o(i.Sys_Run_Func4_Per10ms)
    Sys_Run_Func5_Per100ms                   0x0000d9f9   Thumb Code    12  func.o(i.Sys_Run_Func5_Per100ms)
    Sys_Run_Per2ms                           0x0000da05   Thumb Code    16  func.o(i.Sys_Run_Per2ms)
    SystemClockConfig                        0x0000da15   Thumb Code   160  lib_scu.o(i.SystemClockConfig)
    SystemClockSelect                        0x0000dad1   Thumb Code   132  lib_scu.o(i.SystemClockSelect)
    SystemCoreClockUpdate                    0x0000db5d   Thumb Code   232  system_es8h018x.o(i.SystemCoreClockUpdate)
    SystemHRCSelect                          0x0000dc65   Thumb Code    36  lib_scu.o(i.SystemHRCSelect)
    SystemInit                               0x0000dc91   Thumb Code     8  system_es8h018x.o(i.SystemInit)
    T16N0_IRQHandler                         0x0000dc99   Thumb Code   110  irqhandler.o(i.T16N0_IRQHandler)
    T16NxInit                                0x0000dd15   Thumb Code    84  init_es8h018x_ex8h0163.o(i.T16NxInit)
    T16Nx_BaseInit                           0x0000dd6d   Thumb Code    76  lib_timer.o(i.T16Nx_BaseInit)
    T16Nx_ClearIFPendingBit                  0x0000ddb9   Thumb Code     4  lib_timer.o(i.T16Nx_ClearIFPendingBit)
    T16Nx_GetITStatus                        0x0000ddbd   Thumb Code    38  lib_timer.o(i.T16Nx_GetITStatus)
    T16Nx_ITConfig                           0x0000dde3   Thumb Code    20  lib_timer.o(i.T16Nx_ITConfig)
    T16Nx_MAT0ITConfig                       0x0000ddf7   Thumb Code    24  lib_timer.o(i.T16Nx_MAT0ITConfig)
    T16Nx_SetMAT0                            0x0000de0f   Thumb Code    14  lib_timer.o(i.T16Nx_SetMAT0)
    T16Nx_SetPREMAT                          0x0000de1d   Thumb Code    16  lib_timer.o(i.T16Nx_SetPREMAT)
    TempT1TSDeltaZone                        0x0000de2d   Thumb Code   812  tempr.o(i.TempT1TSDeltaZone)
    TempT2HeatZone                           0x0000e169   Thumb Code   578  tempr.o(i.TempT2HeatZone)
    TempT4CoolZone                           0x0000e3c1   Thumb Code   942  tempr.o(i.TempT4CoolZone)
    TempT4HeatZone                           0x0000e781   Thumb Code   914  tempr.o(i.TempT4HeatZone)
    TempValueCon                             0x0000eb21   Thumb Code   316  tempr.o(i.TempValueCon)
    TempValueMul10                           0x0000ec7d   Thumb Code    14  tempr.o(i.TempValueMul10)
    TempValueRounding                        0x0000ec8b   Thumb Code    98  tempr.o(i.TempValueRounding)
    TimerPara_Init                           0x0000eced   Thumb Code    12  timer.o(i.TimerPara_Init)
    TimerUVC_Run                             0x0000ecfd   Thumb Code    24  uvc.o(i.TimerUVC_Run)
    Timer_Run                                0x0000ed1d   Thumb Code   144  timer.o(i.Timer_Run)
    TimingDelay_Decrement                    0x0000edb5   Thumb Code    20  systick.o(i.TimingDelay_Decrement)
    UART0_IRQHandler                         0x0000edcd   Thumb Code     8  irqhandler.o(i.UART0_IRQHandler)
    UART2_IRQHandler                         0x0000edd5   Thumb Code     8  irqhandler.o(i.UART2_IRQHandler)
    UART4_IRQHandler                         0x0000eddd   Thumb Code     8  irqhandler.o(i.UART4_IRQHandler)
    UART_GetFlagStatus                       0x0000ede5   Thumb Code    20  lib_uart.o(i.UART_GetFlagStatus)
    UART_GetITStatus                         0x0000edf9   Thumb Code    18  lib_uart.o(i.UART_GetITStatus)
    UART_ITConfig                            0x0000ee0b   Thumb Code    24  lib_uart.o(i.UART_ITConfig)
    UART_Init                                0x0000ee25   Thumb Code   360  lib_uart.o(i.UART_Init)
    UART_RBIMConfig                          0x0000ef95   Thumb Code    24  lib_uart.o(i.UART_RBIMConfig)
    UART_RecByte                             0x0000efad   Thumb Code     6  lib_uart.o(i.UART_RecByte)
    UART_SendByte                            0x0000efb3   Thumb Code     4  lib_uart.o(i.UART_SendByte)
    UART_TBIMConfig                          0x0000efb7   Thumb Code    24  lib_uart.o(i.UART_TBIMConfig)
    Uart0_Config                             0x0000efd1   Thumb Code   198  uart_app.o(i.Uart0_Config)
    Uart0_Interrupt                          0x0000f09d   Thumb Code   280  uart.o(i.Uart0_Interrupt)
    Uart0_SendPackDeal                       0x0000f1c9   Thumb Code    70  uart.o(i.Uart0_SendPackDeal)
    Uart3_Config_lhh                         0x0000f221   Thumb Code   200  uart_app.o(i.Uart3_Config_lhh)
    Uart3_Init                               0x0000f2ed   Thumb Code    48  uart.o(i.Uart3_Init)
    Uart3_Interrupt_lhh                      0x0000f33d   Thumb Code   214  uart.o(i.Uart3_Interrupt_lhh)
    Uart4_Config                             0x0000f439   Thumb Code   198  uart_app.o(i.Uart4_Config)
    Uart4_Interrupt                          0x0000f505   Thumb Code   274  uart.o(i.Uart4_Interrupt)
    Uart4_SendPackDeal                       0x0000f62d   Thumb Code    70  uart.o(i.Uart4_SendPackDeal)
    Write_24C02                              0x0000f685   Thumb Code   128  eep24c02.o(i.Write_24C02)
    __ARM_common_switch8                     0x0000f709   Thumb Code    28  lib_gpio.o(i.__ARM_common_switch8)
    app_Rec                                  0x0000f725   Thumb Code   540  uart_app.o(i.app_Rec)
    main                                     0x0000f95d   Thumb Code    56  main.o(i.main)
    send_OneSix_Data                         0x0000f9a1   Thumb Code    76  uart_app.o(i.send_OneSix_Data)
    send_Three_Data                          0x0000fa01   Thumb Code   794  uart_app.o(i.send_Three_Data)
    Region$$Table$$Base                      0x0000fd74   Number         0  anon$$obj.o(Region$$Table)
    Region$$Table$$Limit                     0x0000fd94   Number         0  anon$$obj.o(Region$$Table)
    SystemCoreClock                          0x20000000   Data           4  system_es8h018x.o(.data)
    TimingDelay                              0x20000004   Data           4  systick.o(.data)
    Sys                                      0x2000000a   Data           8  main.o(.data)
    U8_adtemp_value                          0x20000012   Data           4  ad_app.o(.data)
    U8_adtemp_dotvalue                       0x20000016   Data           4  ad_app.o(.data)
    U8_adc_channel                           0x2000001a   Data           1  ad_app.o(.data)
    Switch                                   0x2000002b   Data           2  switch.o(.data)
    SwitchFlag0                              0x2000002d   Data           1  switch.o(.data)
    SwitchFlag1                              0x2000002e   Data           1  switch.o(.data)
    StepMotorFlag                            0x2000002f   Data           1  stepmotor.o(.data)
    g_tx_length                              0x20000030   Data           1  uart.o(.data)
    g_tx_count                               0x20000031   Data           1  uart.o(.data)
    g_tx_OutDoorStatus1                      0x20000032   Data           1  uart.o(.data)
    g_tx_OutDoorStatus2                      0x20000033   Data           1  uart.o(.data)
    g_tx_OutDoorStatus3                      0x20000034   Data           1  uart.o(.data)
    g_rx_length                              0x20000035   Data           1  uart.o(.data)
    g_rx_count                               0x20000036   Data           1  uart.o(.data)
    g_rx_time                                0x20000037   Data           1  uart.o(.data)
    g_rx_finish_flag                         0x20000038   Data           1  uart.o(.data)
    g_rx_start_flag                          0x20000039   Data           1  uart.o(.data)
    g_16rx_length                            0x2000003a   Data           1  uart.o(.data)
    g_crcbuf                                 0x2000003b   Data           2  uart.o(.data)
    STRUCT_uart0_flag0                       0x2000003d   Data           1  uart.o(.data)
    STRUCT_uart4_flag0                       0x2000003e   Data           1  uart.o(.data)
    SystemMode                               0x2000003f   Data           3  function.o(.data)
    l_outDoorMode                            0x20000048   Data           1  commmotdrv.o(.data)
    FourWay                                  0x2000004c   Data           8  fourway.o(.data)
    WPMotor                                  0x20000054   Data           8  wpmotor.o(.data)
    UVC                                      0x2000005c   Data           8  uvc.o(.data)
    Enum_LowPower                            0x20000064   Data           1  lowpower.o(.data)
    PowEn12V                                 0x20000068   Data           8  lowpower.o(.data)
    PowEnPTC                                 0x20000070   Data           8  lowpower.o(.data)
    PowEnPTCB                                0x20000078   Data           8  lowpower.o(.data)
    U8_LowPower_Step                         0x20000080   Data           1  lowpower.o(.data)
    EAHeater                                 0x20000081   Data           1  eaheater.o(.data)
    DCFan                                    0x20000084   Data           8  dcfan.o(.data)
    EEP                                      0x20000090   Data         322  eep24c02.o(.bss)
    Ad                                       0x200001d4   Data          48  ad.o(.bss)
    U16_adc_temp_table                       0x20000204   Data         624  ad_app.o(.bss)
    U16_ad_value_12bit_resultOK              0x20000474   Data          16  ad_app.o(.bss)
    U16_adbak_value                          0x20000484   Data          16  ad_app.o(.bss)
    StepMotor                                0x20000494   Data          16  stepmotor.o(.bss)
    Swing                                    0x200004a4   Data          20  swing.o(.bss)
    g_txbuf                                  0x200004b8   Data         255  uart.o(.bss)
    g_rxbuf                                  0x200005b7   Data         255  uart.o(.bss)
    Uart0                                    0x200006b8   Data          20  uart.o(.bss)
    U8_Uart0_TxBuf                           0x200006cc   Data          28  uart.o(.bss)
    U8_Uart0_AppTxBuf                        0x200006e8   Data          28  uart.o(.bss)
    U8_Uart0_DrvRxBuf                        0x20000704   Data          16  uart.o(.bss)
    U8_Uart0_RxBuf                           0x20000714   Data          16  uart.o(.bss)
    Uart4                                    0x20000724   Data          20  uart.o(.bss)
    U8_Uart4_TxBuf                           0x20000738   Data          20  uart.o(.bss)
    U8_Uart4_AppTxBuf                        0x2000074c   Data          20  uart.o(.bss)
    U8_Uart4_DrvRxBuf                        0x20000760   Data          20  uart.o(.bss)
    U8_Uart4_RxBuf                           0x20000774   Data          20  uart.o(.bss)
    l_contData                               0x20000788   Data          22  uart_app.o(.bss)
    System                                   0x200007a0   Data          48  function.o(.bss)
    Remember                                 0x200007d0   Data          12  remember.o(.bss)
    Protect                                  0x200007e8   Data          28  protect.o(.bss)
    Defrost                                  0x20000804   Data          36  defrost.o(.bss)
    CommMotDrv                               0x20000828   Data          80  commmotdrv.o(.bss)
    CommDisp                                 0x20000878   Data          38  commdisp.o(.bss)
    CmdInBak                                 0x2000089e   Data          12  cmdin.o(.bss)
    CmdOutBak                                0x200008aa   Data          24  cmdout.o(.bss)
    Comp                                     0x200008c4   Data          64  comp.o(.bss)
    Fan                                      0x20000904   Data          60  fan.o(.bss)
    Timer                                    0x20000940   Data          12  timer.o(.bss)
    T1                                       0x2000094c   Data          20  tempr.o(.bss)
    T2                                       0x20000960   Data          20  tempr.o(.bss)
    T3                                       0x20000974   Data          20  tempr.o(.bss)
    T4                                       0x20000988   Data          20  tempr.o(.bss)
    Tp                                       0x2000099c   Data          20  tempr.o(.bss)
    Tempr                                    0x200009b0   Data          40  tempr.o(.bss)
    WaterBox                                 0x200009d8   Data          20  waterbox.o(.bss)
    WiFi                                     0x200009ec   Data         124  twifi.o(.bss)
    __libspace_start                         0x20000a68   Data          96  libspace.o(.bss)
    __temporary_stack_top$libspace           0x20000ac8   Data           0  libspace.o(.bss)



==============================================================================

Memory Map of the image

  Image Entry point : 0x000000c1

  Load Region LR_IROM1 (Base: 0x00000000, Size: 0x0000fe24, Max: 0x00020000, ABSOLUTE)

    Execution Region ER_IROM1 (Exec base: 0x00000000, Load base: 0x00000000, Size: 0x0000fd94, Max: 0x00020000, ABSOLUTE)

    Exec Addr    Load Addr    Size         Type   Attr      Idx    E Section Name        Object

    0x00000000   0x00000000   0x000000c0   Data   RO            3    RESET               startup_es8h018x.o
    0x000000c0   0x000000c0   0x00000008   Code   RO         3845  * !!!main             c_p.l(__main.o)
    0x000000c8   0x000000c8   0x0000003c   Code   RO         4021    !!!scatter          c_p.l(__scatter.o)
    0x00000104   0x00000104   0x0000001a   Code   RO         4023    !!handler_copy      c_p.l(__scatter_copy.o)
    0x0000011e   0x0000011e   0x00000002   PAD
    0x00000120   0x00000120   0x0000001c   Code   RO         4025    !!handler_zi        c_p.l(__scatter_zi.o)
    0x0000013c   0x0000013c   0x00000002   Code   RO         3888    .ARM.Collect$$libinit$$00000000  c_p.l(libinit.o)
    0x0000013e   0x0000013e   0x00000000   Code   RO         3902    .ARM.Collect$$libinit$$00000002  c_p.l(libinit2.o)
    0x0000013e   0x0000013e   0x00000000   Code   RO         3904    .ARM.Collect$$libinit$$00000004  c_p.l(libinit2.o)
    0x0000013e   0x0000013e   0x00000000   Code   RO         3907    .ARM.Collect$$libinit$$0000000A  c_p.l(libinit2.o)
    0x0000013e   0x0000013e   0x00000000   Code   RO         3909    .ARM.Collect$$libinit$$0000000C  c_p.l(libinit2.o)
    0x0000013e   0x0000013e   0x00000000   Code   RO         3911    .ARM.Collect$$libinit$$0000000E  c_p.l(libinit2.o)
    0x0000013e   0x0000013e   0x00000000   Code   RO         3914    .ARM.Collect$$libinit$$00000011  c_p.l(libinit2.o)
    0x0000013e   0x0000013e   0x00000000   Code   RO         3916    .ARM.Collect$$libinit$$00000013  c_p.l(libinit2.o)
    0x0000013e   0x0000013e   0x00000000   Code   RO         3918    .ARM.Collect$$libinit$$00000015  c_p.l(libinit2.o)
    0x0000013e   0x0000013e   0x00000000   Code   RO         3920    .ARM.Collect$$libinit$$00000017  c_p.l(libinit2.o)
    0x0000013e   0x0000013e   0x00000000   Code   RO         3922    .ARM.Collect$$libinit$$00000019  c_p.l(libinit2.o)
    0x0000013e   0x0000013e   0x00000000   Code   RO         3924    .ARM.Collect$$libinit$$0000001B  c_p.l(libinit2.o)
    0x0000013e   0x0000013e   0x00000000   Code   RO         3926    .ARM.Collect$$libinit$$0000001D  c_p.l(libinit2.o)
    0x0000013e   0x0000013e   0x00000000   Code   RO         3928    .ARM.Collect$$libinit$$0000001F  c_p.l(libinit2.o)
    0x0000013e   0x0000013e   0x00000000   Code   RO         3930    .ARM.Collect$$libinit$$00000021  c_p.l(libinit2.o)
    0x0000013e   0x0000013e   0x00000000   Code   RO         3932    .ARM.Collect$$libinit$$00000023  c_p.l(libinit2.o)
    0x0000013e   0x0000013e   0x00000000   Code   RO         3934    .ARM.Collect$$libinit$$00000025  c_p.l(libinit2.o)
    0x0000013e   0x0000013e   0x00000000   Code   RO         3938    .ARM.Collect$$libinit$$0000002C  c_p.l(libinit2.o)
    0x0000013e   0x0000013e   0x00000000   Code   RO         3940    .ARM.Collect$$libinit$$0000002E  c_p.l(libinit2.o)
    0x0000013e   0x0000013e   0x00000000   Code   RO         3942    .ARM.Collect$$libinit$$00000030  c_p.l(libinit2.o)
    0x0000013e   0x0000013e   0x00000000   Code   RO         3944    .ARM.Collect$$libinit$$00000032  c_p.l(libinit2.o)
    0x0000013e   0x0000013e   0x00000002   Code   RO         3945    .ARM.Collect$$libinit$$00000033  c_p.l(libinit2.o)
    0x00000140   0x00000140   0x00000002   Code   RO         3976    .ARM.Collect$$libshutdown$$00000000  c_p.l(libshutdown.o)
    0x00000142   0x00000142   0x00000000   Code   RO         4002    .ARM.Collect$$libshutdown$$00000002  c_p.l(libshutdown2.o)
    0x00000142   0x00000142   0x00000000   Code   RO         4004    .ARM.Collect$$libshutdown$$00000004  c_p.l(libshutdown2.o)
    0x00000142   0x00000142   0x00000000   Code   RO         4006    .ARM.Collect$$libshutdown$$00000006  c_p.l(libshutdown2.o)
    0x00000142   0x00000142   0x00000000   Code   RO         4009    .ARM.Collect$$libshutdown$$00000009  c_p.l(libshutdown2.o)
    0x00000142   0x00000142   0x00000000   Code   RO         4012    .ARM.Collect$$libshutdown$$0000000C  c_p.l(libshutdown2.o)
    0x00000142   0x00000142   0x00000000   Code   RO         4014    .ARM.Collect$$libshutdown$$0000000E  c_p.l(libshutdown2.o)
    0x00000142   0x00000142   0x00000000   Code   RO         4017    .ARM.Collect$$libshutdown$$00000011  c_p.l(libshutdown2.o)
    0x00000142   0x00000142   0x00000002   Code   RO         4018    .ARM.Collect$$libshutdown$$00000012  c_p.l(libshutdown2.o)
    0x00000144   0x00000144   0x00000000   Code   RO         3851    .ARM.Collect$$rtentry$$00000000  c_p.l(__rtentry.o)
    0x00000144   0x00000144   0x00000000   Code   RO         3858    .ARM.Collect$$rtentry$$00000002  c_p.l(__rtentry2.o)
    0x00000144   0x00000144   0x00000006   Code   RO         3870    .ARM.Collect$$rtentry$$00000004  c_p.l(__rtentry4.o)
    0x0000014a   0x0000014a   0x00000000   Code   RO         3860    .ARM.Collect$$rtentry$$00000009  c_p.l(__rtentry2.o)
    0x0000014a   0x0000014a   0x00000004   Code   RO         3861    .ARM.Collect$$rtentry$$0000000A  c_p.l(__rtentry2.o)
    0x0000014e   0x0000014e   0x00000000   Code   RO         3863    .ARM.Collect$$rtentry$$0000000C  c_p.l(__rtentry2.o)
    0x0000014e   0x0000014e   0x00000008   Code   RO         3864    .ARM.Collect$$rtentry$$0000000D  c_p.l(__rtentry2.o)
    0x00000156   0x00000156   0x00000002   Code   RO         3893    .ARM.Collect$$rtexit$$00000000  c_p.l(rtexit.o)
    0x00000158   0x00000158   0x00000000   Code   RO         3949    .ARM.Collect$$rtexit$$00000002  c_p.l(rtexit2.o)
    0x00000158   0x00000158   0x00000004   Code   RO         3950    .ARM.Collect$$rtexit$$00000003  c_p.l(rtexit2.o)
    0x0000015c   0x0000015c   0x00000006   Code   RO         3951    .ARM.Collect$$rtexit$$00000004  c_p.l(rtexit2.o)
    0x00000162   0x00000162   0x00000002   PAD
    0x00000164   0x00000164   0x00000038   Code   RO         3833    .emb_text           c_p.l(rt_memcpy.o)
    0x0000019c   0x0000019c   0x00000034   Code   RO            4    .text               startup_es8h018x.o
    0x000001d0   0x000001d0   0x00000040   Code   RO         3837    .text               c_p.l(rt_memclr.o)
    0x00000210   0x00000210   0x0000015a   Code   RO         3839    .text               c_p.l(aeabi_sdiv.o)
    0x0000036a   0x0000036a   0x00000006   Code   RO         3843    .text               c_p.l(heapauxi.o)
    0x00000370   0x00000370   0x0000003e   Code   RO         3874    .text               c_p.l(sys_stackheap_outer.o)
    0x000003ae   0x000003ae   0x00000010   Code   RO         3877    .text               c_p.l(exit.o)
    0x000003be   0x000003be   0x00000002   PAD
    0x000003c0   0x000003c0   0x00000008   Code   RO         3889    .text               c_p.l(libspace.o)
    0x000003c8   0x000003c8   0x0000000c   Code   RO         3946    .text               c_p.l(sys_exit.o)
    0x000003d4   0x000003d4   0x00000002   Code   RO         3965    .text               c_p.l(use_no_semi.o)
    0x000003d6   0x000003d6   0x00000000   Code   RO         3967    .text               c_p.l(indicate_semi.o)
    0x000003d6   0x000003d6   0x00000002   PAD
    0x000003d8   0x000003d8   0x00000010   Code   RO           13    i.ADC_ClearIFStatus  lib_adc.o
    0x000003e8   0x000003e8   0x0000001c   Code   RO           17    i.ADC_GetConvStatus  lib_adc.o
    0x00000404   0x00000404   0x00000060   Code   RO           18    i.ADC_GetConvValue  lib_adc.o
    0x00000464   0x00000464   0x000000fc   Code   RO           21    i.ADC_Init          lib_adc.o
    0x00000560   0x00000560   0x000000f4   Code   RO         2160    i.App_ADCGetTemperature  ad_app.o
    0x00000654   0x00000654   0x000000c0   Code   RO         2161    i.App_ADCLookupTemperatureTable  ad_app.o
    0x00000714   0x00000714   0x00000048   Code   RO         2162    i.App_AdValueDiffer_Check  ad_app.o
    0x0000075c   0x0000075c   0x00000028   Code   RO         3224    i.App_Comp_AntiDew  comp.o
    0x00000784   0x00000784   0x00000054   Code   RO         3225    i.App_Comp_ForceFun  comp.o
    0x000007d8   0x000007d8   0x00000114   Code   RO         3226    i.App_Comp_InDoorFan  comp.o
    0x000008ec   0x000008ec   0x000000fc   Code   RO         3227    i.App_Comp_PerTest  comp.o
    0x000009e8   0x000009e8   0x000003ac   Code   RO         3228    i.App_Comp_ProCon   comp.o
    0x00000d94   0x00000d94   0x00000234   Code   RO         3229    i.App_Comp_RunHzInitIndex  comp.o
    0x00000fc8   0x00000fc8   0x00000070   Code   RO         3230    i.App_Comp_Sleep    comp.o
    0x00001038   0x00001038   0x00000438   Code   RO         3231    i.App_Comp_T1TSDelta  comp.o
    0x00001470   0x00001470   0x00000160   Code   RO         3232    i.App_Comp_T2Heat   comp.o
    0x000015d0   0x000015d0   0x000004a0   Code   RO         3233    i.App_Comp_T4       comp.o
    0x00001a70   0x00001a70   0x0000022c   Code   RO         3234    i.App_Comp_T4_OffJudge  comp.o
    0x00001c9c   0x00001c9c   0x00000040   Code   RO         3235    i.App_Comp_WatFull  comp.o
    0x00001cdc   0x00001cdc   0x000004b0   Code   RO         2542    i.App_Event_100ms   function.o
    0x0000218c   0x0000218c   0x00000002   Code   RO         2543    i.App_Event_10ms    function.o
    0x0000218e   0x0000218e   0x00000002   PAD
    0x00002190   0x00002190   0x00000668   Code   RO         3334    i.App_Fan_InDoor    fan.o
    0x000027f8   0x000027f8   0x000001ac   Code   RO         3335    i.App_Fan_OutDoor   fan.o
    0x000029a4   0x000029a4   0x00000078   Code   RO         2544    i.App_Function      function.o
    0x00002a1c   0x00002a1c   0x00000160   Code   RO         2163    i.App_LookUpTemperature  ad_app.o
    0x00002b7c   0x00002b7c   0x000000cc   Code   RO         2164    i.App_NTC_Check     ad_app.o
    0x00002c48   0x00002c48   0x000001e4   Code   RO         2545    i.App_Status_BussCheck  function.o
    0x00002e2c   0x00002e2c   0x000001bc   Code   RO         2546    i.App_Status_Init   function.o
    0x00002fe8   0x00002fe8   0x000000f4   Code   RO         2547    i.App_Status_Off    function.o
    0x000030dc   0x000030dc   0x000010f4   Code   RO         2548    i.App_Status_On     function.o
    0x000041d0   0x000041d0   0x00000002   Code   RO         2549    i.App_Status_SelCheck  function.o
    0x000041d2   0x000041d2   0x00000002   PAD
    0x000041d4   0x000041d4   0x000001d0   Code   RO         2310    i.App_StepMotor_Run  stepmotor_app.o
    0x000043a4   0x000043a4   0x0000003c   Code   RO         2214    i.App_Switch        switch.o
    0x000043e0   0x000043e0   0x000000b8   Code   RO         3770    i.App_TCLModule_CtoF  twifi.o
    0x00004498   0x00004498   0x00000048   Code   RO         3771    i.App_TCLModule_Fadd1  twifi.o
    0x000044e0   0x000044e0   0x00000538   Code   RO         3772    i.App_TCLModule_Master_Info  twifi.o
    0x00004a18   0x00004a18   0x00000e24   Code   RO         3773    i.App_TCLModule_Slave_Info  twifi.o
    0x0000583c   0x0000583c   0x000001cc   Code   RO         2456    i.App_Uart0_Read_Frame  uart_app.o
    0x00005a08   0x00005a08   0x000000f4   Code   RO         2457    i.App_Uart0_Write_Frame  uart_app.o
    0x00005afc   0x00005afc   0x00000210   Code   RO         2458    i.App_Uart4_Read_Frame  uart_app.o
    0x00005d0c   0x00005d0c   0x00000100   Code   RO         2459    i.App_Uart4_Write_Frame  uart_app.o
    0x00005e0c   0x00005e0c   0x000000f0   Code   RO         2786    i.BaseRunTx_Byte10_InDoorProtect1  commmotdrv.o
    0x00005efc   0x00005efc   0x0000009c   Code   RO         2787    i.BaseRunTx_Byte11_InDoorProtect2  commmotdrv.o
    0x00005f98   0x00005f98   0x00000134   Code   RO         2788    i.BaseRunTx_Byte12_InDoorProtect3  commmotdrv.o
    0x000060cc   0x000060cc   0x00000014   Code   RO         2789    i.BaseRunTx_Byte13_InDoorFanSpeedDiv10  commmotdrv.o
    0x000060e0   0x000060e0   0x0000004c   Code   RO         2790    i.BaseRunTx_Byte14_TempCoil1  commmotdrv.o
    0x0000612c   0x0000612c   0x0000004c   Code   RO         2791    i.BaseRunTx_Byte15_TempCoil2  commmotdrv.o
    0x00006178   0x00006178   0x00000034   Code   RO         2792    i.BaseRunTx_Byte16_TempExhaust  commmotdrv.o
    0x000061ac   0x000061ac   0x0000016c   Code   RO         2793    i.BaseRunTx_Byte17_InDoorStatus  commmotdrv.o
    0x00006318   0x00006318   0x000000b8   Code   RO         2794    i.BaseRunTx_Byte5_InDoorRunMode  commmotdrv.o
    0x000063d0   0x000063d0   0x0000000c   Code   RO         2795    i.BaseRunTx_Byte6_OutDoorTargetFreq  commmotdrv.o
    0x000063dc   0x000063dc   0x0000004c   Code   RO         2796    i.BaseRunTx_Byte7_OutDoorTargetFreqDotMul60  commmotdrv.o
    0x00006428   0x00006428   0x00000024   Code   RO         2797    i.BaseRunTx_Byte8_InDoorTempSet  commmotdrv.o
    0x0000644c   0x0000644c   0x0000004c   Code   RO         2798    i.BaseRunTx_Byte9_InDoorTemp  commmotdrv.o
    0x00006498   0x00006498   0x00000028   Code   RO         2311    i.Case_StepMotor_Pause  stepmotor_app.o
    0x000064c0   0x000064c0   0x00000028   Code   RO         2312    i.Case_StepMotor_StepTime  stepmotor_app.o
    0x000064e8   0x000064e8   0x00000022   Code   RO         2921    i.CommDisp_Check8   commdisp.o
    0x0000650a   0x0000650a   0x00000002   PAD
    0x0000650c   0x0000650c   0x00000310   Code   RO         2799    i.CommMotDrv_BaseRunRx  commmotdrv.o
    0x0000681c   0x0000681c   0x00000088   Code   RO         2800    i.CommMotDrv_BaseRunTx  commmotdrv.o
    0x000068a4   0x000068a4   0x000001c0   Code   RO         2801    i.CommMotDrv_Con    commmotdrv.o
    0x00006a64   0x00006a64   0x0000004c   Code   RO         2802    i.CommMotDrv_InfoCon  commmotdrv.o
    0x00006ab0   0x00006ab0   0x00000078   Code   RO         2803    i.CommMotDrv_ReqSetRx  commmotdrv.o
    0x00006b28   0x00006b28   0x00000098   Code   RO         2804    i.CommMotDrv_ReqSetTx  commmotdrv.o
    0x00006bc0   0x00006bc0   0x0000001c   Code   RO         1828    i.ConfigIO_Input    init_es8h018x_ex8h0163.o
    0x00006bdc   0x00006bdc   0x0000001a   Code   RO         1831    i.ConfigIO_Output   init_es8h018x_ex8h0163.o
    0x00006bf6   0x00006bf6   0x00000012   Code   RO         1836    i.ConfigIO_PullUpDisable  init_es8h018x_ex8h0163.o
    0x00006c08   0x00006c08   0x00000012   Code   RO         1837    i.ConfigIO_PullUpEnable  init_es8h018x_ex8h0163.o
    0x00006c1a   0x00006c1a   0x00000002   PAD
    0x00006c1c   0x00006c1c   0x00000010   Code   RO         2755    i.Defrost_Init      defrost.o
    0x00006c2c   0x00006c2c   0x00000034   Code   RO          696    i.DeviceClockAllEnable  lib_scu.o
    0x00006c60   0x00006c60   0x00000150   Code   RO         2955    i.DisplayBoardCommandCheck  cmdin.o
    0x00006db0   0x00006db0   0x00000164   Code   RO         3060    i.DisplayBoardCommandUpdate  cmdout.o
    0x00006f14   0x00006f14   0x00000078   Code   RO         2957    i.DisplayBoardTurnOn  cmdin.o
    0x00006f8c   0x00006f8c   0x00000028   Code   RO         2960    i.DisplayBoard_Byte12_Con  cmdin.o
    0x00006fb4   0x00006fb4   0x0000003c   Code   RO         3063    i.DisplayBoard_Byte12_Update  cmdout.o
    0x00006ff0   0x00006ff0   0x00000002   Code   RO         3337    i.Drv_Fan_OutDoor   fan.o
    0x00006ff2   0x00006ff2   0x0000000c   Code   RO         3523    i.Func_FourWay      fourway.o
    0x00006ffe   0x00006ffe   0x00000002   Code   RO         1528    i.NMI_IRQHandler    irqhandler.o
    0x00007000   0x00007000   0x00000004   Data   RO         2132    .ARM.__AT_0x00007000  ad.o
    0x00007004   0x00007004   0x00000478   Code   RO         2754    i.Defrost_Con       defrost.o
    0x0000747c   0x0000747c   0x000000b8   Code   RO         2958    i.DisplayBoard_Byte10_Con  cmdin.o
    0x00007534   0x00007534   0x000000bc   Code   RO         3061    i.DisplayBoard_Byte10_Update  cmdout.o
    0x000075f0   0x000075f0   0x0000000c   Code   RO         3611    i.Func_UVC          uvc.o
    0x000075fc   0x000075fc   0x00000004   Code   RO         1527    i.HardFault_IRQHandler  irqhandler.o
    0x00007600   0x00007600   0x000001f8   Data   RO         2165    .ARM.__AT_0x00007600  ad_app.o
    0x000077f8   0x000077f8   0x0000002c   Code   RO         2961    i.DisplayBoard_Byte13_Con  cmdin.o
    0x00007824   0x00007824   0x0000003c   Code   RO         3064    i.DisplayBoard_Byte13_Update  cmdout.o
    0x00007860   0x00007860   0x0000001c   Code   RO         3338    i.Func_Fan          fan.o
    0x0000787c   0x0000787c   0x00000002   Code   RO         1529    i.PendSV_IRQHandler  irqhandler.o
    0x0000787e   0x0000787e   0x00000002   Code   RO         2619    i.Remember_EE_Dat_Init  remember.o
    0x00007880   0x00007880   0x000001f8   Data   RO         2166    .ARM.__AT_0x00007880  ad_app.o
    0x00007a78   0x00007a78   0x00000060   Code   RO         2962    i.DisplayBoard_Byte14_Con  cmdin.o
    0x00007ad8   0x00007ad8   0x00000024   Code   RO         3522    i.Drv_FourWay       fourway.o
    0x00007afc   0x00007afc   0x00000002   Code   RO         1530    i.SVC_IRQHandler    irqhandler.o
    0x00007afe   0x00007afe   0x00000002   Code   RO         1927    i.Sys_Run_Func4_Per100ms  func.o
    0x00007b00   0x00007b00   0x00000220   Data   RO         2167    .ARM.__AT_0x00007B00  ad_app.o
    0x00007d20   0x00007d20   0x0000019c   Code   RO         2956    i.DisplayBoardTurnOff  cmdin.o
    0x00007ebc   0x00007ebc   0x00000034   Code   RO         3065    i.DisplayBoard_Byte14_Update  cmdout.o
    0x00007ef0   0x00007ef0   0x000000f0   Code   RO         2963    i.DisplayBoard_Byte15_Con  cmdin.o
    0x00007fe0   0x00007fe0   0x00000018   Code   RO         3428    i.Func_Temprature   tempr.o
    0x00007ff8   0x00007ff8   0x00000008   Code   RO         1531    i.SysTick_IRQHandler  irqhandler.o
    0x00008000   0x00008000   0x00000008   Data   RO         2268    .ARM.__AT_0x00008000  stepmotor.o
    0x00008008   0x00008008   0x00000214   Code   RO         2959    i.DisplayBoard_Byte11_Con  cmdin.o
    0x0000821c   0x0000821c   0x00000268   Code   RO         3062    i.DisplayBoard_Byte11_Update  cmdout.o
    0x00008484   0x00008484   0x00000068   Code   RO         3066    i.DisplayBoard_Byte15_Update  cmdout.o
    0x000084ec   0x000084ec   0x00000034   Code   RO         3067    i.DisplayBoard_Byte16_Update  cmdout.o
    0x00008520   0x00008520   0x000000ac   Code   RO         3068    i.DisplayBoard_Byte17_Update  cmdout.o
    0x000085cc   0x000085cc   0x000000e0   Code   RO         3069    i.DisplayBoard_Byte18_Update  cmdout.o
    0x000086ac   0x000086ac   0x0000003c   Code   RO         3070    i.DisplayBoard_Byte19_Update  cmdout.o
    0x000086e8   0x000086e8   0x00000054   Code   RO         3071    i.DisplayBoard_Byte20_Update  cmdout.o
    0x0000873c   0x0000873c   0x00000054   Code   RO         3072    i.DisplayBoard_Byte21_Update  cmdout.o
    0x00008790   0x00008790   0x0000003c   Code   RO         3073    i.DisplayBoard_Byte22_Update  cmdout.o
    0x000087cc   0x000087cc   0x0000003c   Code   RO         3074    i.DisplayBoard_Byte23_Update  cmdout.o
    0x00008808   0x00008808   0x00000044   Code   RO         3075    i.DisplayBoard_Byte24_Update  cmdout.o
    0x0000884c   0x0000884c   0x00000044   Code   RO         3076    i.DisplayBoard_Byte25_Update  cmdout.o
    0x00008890   0x00008890   0x00000038   Code   RO         3077    i.DisplayBoard_Byte26_Update  cmdout.o
    0x000088c8   0x000088c8   0x00000058   Code   RO         3078    i.DisplayBoard_Byte27_Update  cmdout.o
    0x00008920   0x00008920   0x00000208   Code   RO         2964    i.DisplayBoard_Byte5_Con  cmdin.o
    0x00008b28   0x00008b28   0x000001b4   Code   RO         3079    i.DisplayBoard_Byte5_Update  cmdout.o
    0x00008cdc   0x00008cdc   0x0000042c   Code   RO         2965    i.DisplayBoard_Byte6_Con  cmdin.o
    0x00009108   0x00009108   0x00000140   Code   RO         3080    i.DisplayBoard_Byte6_Update  cmdout.o
    0x00009248   0x00009248   0x0000006c   Code   RO         2966    i.DisplayBoard_Byte7_Con  cmdin.o
    0x000092b4   0x000092b4   0x000000dc   Code   RO         3081    i.DisplayBoard_Byte7_Update  cmdout.o
    0x00009390   0x00009390   0x000000a0   Code   RO         2967    i.DisplayBoard_Byte8_Con  cmdin.o
    0x00009430   0x00009430   0x00000048   Code   RO         3082    i.DisplayBoard_Byte8_Update  cmdout.o
    0x00009478   0x00009478   0x000000a0   Code   RO         2968    i.DisplayBoard_Byte9_Con  cmdin.o
    0x00009518   0x00009518   0x00000070   Code   RO         3083    i.DisplayBoard_Byte9_Update  cmdout.o
    0x00009588   0x00009588   0x000001a4   Code   RO         3236    i.Drv_Comp          comp.o
    0x0000972c   0x0000972c   0x000002d8   Code   RO         3336    i.Drv_Fan_InDoor    fan.o
    0x00009a04   0x00009a04   0x00000070   Code   RO         2264    i.Drv_StepMotor     stepmotor.o
    0x00009a74   0x00009a74   0x0000002c   Code   RO         2215    i.Drv_Switch_Scan   switch.o
    0x00009aa0   0x00009aa0   0x00000024   Code   RO         3610    i.Drv_UVC           uvc.o
    0x00009ac4   0x00009ac4   0x00000024   Code   RO         3566    i.Drv_WPMotor       wpmotor.o
    0x00009ae8   0x00009ae8   0x00000060   Code   RO         2460    i.F_CRC16           uart_app.o
    0x00009b48   0x00009b48   0x00000038   Code   RO         3237    i.Func_Comp         comp.o
    0x00009b80   0x00009b80   0x00000084   Code   RO         3738    i.Func_DCFan        dcfan.o
    0x00009c04   0x00009c04   0x00000080   Code   RO         3706    i.Func_EAHeater     eaheater.o
    0x00009c84   0x00009c84   0x00000030   Code   RO         2550    i.Func_HumiCSetInit  function.o
    0x00009cb4   0x00009cb4   0x000004e4   Code   RO         3674    i.Func_LowPower     lowpower.o
    0x0000a198   0x0000a198   0x000000a8   Code   RO         2685    i.Func_Protect      protect.o
    0x0000a240   0x0000a240   0x0000000c   Code   RO         3567    i.Func_WPMotor      wpmotor.o
    0x0000a24c   0x0000a24c   0x000000d8   Code   RO         3496    i.Func_WaterBox     waterbox.o
    0x0000a324   0x0000a324   0x0000006c   Code   RO         3774    i.Func_WiFiPowEn    twifi.o
    0x0000a390   0x0000a390   0x00000010   Code   RO          186    i.GPIOA_ResetBit    lib_gpio.o
    0x0000a3a0   0x0000a3a0   0x00000010   Code   RO          187    i.GPIOA_SetBit      lib_gpio.o
    0x0000a3b0   0x0000a3b0   0x00000010   Code   RO          189    i.GPIOB_ResetBit    lib_gpio.o
    0x0000a3c0   0x0000a3c0   0x00000010   Code   RO          190    i.GPIOB_SetBit      lib_gpio.o
    0x0000a3d0   0x0000a3d0   0x000000a4   Code   RO          192    i.GPIO_Init         lib_gpio.o
    0x0000a474   0x0000a474   0x00000020   Code   RO          193    i.GPIO_Read         lib_gpio.o
    0x0000a494   0x0000a494   0x0000005c   Code   RO          195    i.GPIO_SetDSRegFromPin  lib_gpio.o
    0x0000a4f0   0x0000a4f0   0x00000040   Code   RO          196    i.GPIO_SetDirRegFromPin  lib_gpio.o
    0x0000a530   0x0000a530   0x000006c4   Code   RO          197    i.GPIO_SetFuncxRegFromPin  lib_gpio.o
    0x0000abf4   0x0000abf4   0x0000005c   Code   RO          198    i.GPIO_SetODERegFromPin  lib_gpio.o
    0x0000ac50   0x0000ac50   0x0000005c   Code   RO          199    i.GPIO_SetPDERegFromPin  lib_gpio.o
    0x0000acac   0x0000acac   0x0000005c   Code   RO          200    i.GPIO_SetPUERegFromPin  lib_gpio.o
    0x0000ad08   0x0000ad08   0x0000005c   Code   RO          201    i.GPIO_SetPinFLT    lib_gpio.o
    0x0000ad64   0x0000ad64   0x0000005c   Code   RO          202    i.GPIO_SetPinType   lib_gpio.o
    0x0000adc0   0x0000adc0   0x0000005c   Code   RO          203    i.GPIO_SetSingalTypeFromPin  lib_gpio.o
    0x0000ae1c   0x0000ae1c   0x0000000e   Code   RO         2045    i.IICM_Delay        eep24c02.o
    0x0000ae2a   0x0000ae2a   0x00000034   Code   RO         2046    i.IICM_Start        eep24c02.o
    0x0000ae5e   0x0000ae5e   0x00000028   Code   RO         2047    i.IICM_Stop         eep24c02.o
    0x0000ae86   0x0000ae86   0x00000056   Code   RO         2048    i.IIC_Read_Byte     eep24c02.o
    0x0000aedc   0x0000aedc   0x0000004a   Code   RO         2049    i.IIC_Send_Byte     eep24c02.o
    0x0000af26   0x0000af26   0x00000028   Code   RO         2050    i.IIC_SetAck        eep24c02.o
    0x0000af4e   0x0000af4e   0x00000028   Code   RO         2051    i.IIC_SetNoAck      eep24c02.o
    0x0000af76   0x0000af76   0x0000005a   Code   RO         2052    i.IIC_TestAck       eep24c02.o
    0x0000afd0   0x0000afd0   0x0000001a   Code   RO         3739    i.Init_DCFan        dcfan.o
    0x0000afea   0x0000afea   0x0000001a   Code   RO         3707    i.Init_EAHeater     eaheater.o
    0x0000b004   0x0000b004   0x0000001a   Code   RO         3524    i.Init_FourWay      fourway.o
    0x0000b01e   0x0000b01e   0x00000046   Code   RO         3675    i.Init_LowPower     lowpower.o
    0x0000b064   0x0000b064   0x00000040   Code   RO         1920    i.Init_MCU_Gpio     func.o
    0x0000b0a4   0x0000b0a4   0x0000001a   Code   RO         1838    i.Init_MCU_System   init_es8h018x_ex8h0163.o
    0x0000b0be   0x0000b0be   0x0000001a   Code   RO         2617    i.Init_Pin_WP_Enable  remember.o
    0x0000b0d8   0x0000b0d8   0x0000001a   Code   RO         3612    i.Init_UVC          uvc.o
    0x0000b0f2   0x0000b0f2   0x0000001a   Code   RO         3568    i.Init_WPMotor      wpmotor.o
    0x0000b10c   0x0000b10c   0x0000001a   Code   RO         3775    i.Init_WiFiPowEn    twifi.o
    0x0000b126   0x0000b126   0x00000002   PAD
    0x0000b128   0x0000b128   0x000001dc   Code   RO         2130    i.Log_Ad            ad.o
    0x0000b304   0x0000b304   0x000003fc   Code   RO         3238    i.Log_Comp          comp.o
    0x0000b700   0x0000b700   0x0000009c   Code   RO         3339    i.Log_Fan_InDoor    fan.o
    0x0000b79c   0x0000b79c   0x00000074   Code   RO         3340    i.Log_Fan_OutDoor   fan.o
    0x0000b810   0x0000b810   0x00000124   Code   RO         3525    i.Log_FourWay       fourway.o
    0x0000b934   0x0000b934   0x00000170   Code   RO         2265    i.Log_StepMotor     stepmotor.o
    0x0000baa4   0x0000baa4   0x000000b0   Code   RO         2266    i.Log_StepMotor_SweepAuto  stepmotor.o
    0x0000bb54   0x0000bb54   0x0000005c   Code   RO         2216    i.Log_Switch_Fd     switch.o
    0x0000bbb0   0x0000bbb0   0x000000e0   Code   RO         3613    i.Log_UVC           uvc.o
    0x0000bc90   0x0000bc90   0x000000a0   Code   RO         3569    i.Log_WPMotor       wpmotor.o
    0x0000bd30   0x0000bd30   0x000000a0   Code   RO         2131    i.Module_Init_Ad    ad.o
    0x0000bdd0   0x0000bdd0   0x0000003c   Code   RO         2053    i.Module_Init_IICM  eep24c02.o
    0x0000be0c   0x0000be0c   0x0000005c   Code   RO         2267    i.Module_Init_StepMotor  stepmotor.o
    0x0000be68   0x0000be68   0x0000001a   Code   RO         2217    i.Module_Init_Switch  switch.o
    0x0000be82   0x0000be82   0x0000000c   Code   RO         2380    i.Module_Init_Uart  uart.o
    0x0000be8e   0x0000be8e   0x00000034   Code   RO         2381    i.Module_Init_Uart0  uart.o
    0x0000bec2   0x0000bec2   0x00000034   Code   RO         2382    i.Module_Init_Uart4  uart.o
    0x0000bef6   0x0000bef6   0x00000002   PAD
    0x0000bef8   0x0000bef8   0x00000064   Code   RO          654    i.NVIC_Init         lib_scs.o
    0x0000bf5c   0x0000bf5c   0x00000220   Code   RO          698    i.PLLClock_Config   lib_scu.o
    0x0000c17c   0x0000c17c   0x0000001e   Code   RO         1839    i.PortPin_Read      init_es8h018x_ex8h0163.o
    0x0000c19a   0x0000c19a   0x00000002   PAD
    0x0000c19c   0x0000c19c   0x000000d8   Code   RO         2689    i.Protect_InFanErr  protect.o
    0x0000c274   0x0000c274   0x000001d0   Code   RO         2690    i.Protect_T2Cold    protect.o
    0x0000c444   0x0000c444   0x000001bc   Code   RO         2691    i.Protect_T3Cold    protect.o
    0x0000c600   0x0000c600   0x0000017c   Code   RO         2692    i.Protect_Tp        protect.o
    0x0000c77c   0x0000c77c   0x00000072   Code   RO         2054    i.Read_24C02        eep24c02.o
    0x0000c7ee   0x0000c7ee   0x00000002   PAD
    0x0000c7f0   0x0000c7f0   0x000001d8   Code   RO         2620    i.Remember_ReadEEFunc  remember.o
    0x0000c9c8   0x0000c9c8   0x00000104   Code   RO         2621    i.Remember_ReadEEPara  remember.o
    0x0000cacc   0x0000cacc   0x000002e8   Code   RO         2622    i.Remember_WriteEEFunc  remember.o
    0x0000cdb4   0x0000cdb4   0x00000450   Code   RO         2623    i.Remember_WriteEEPara  remember.o
    0x0000d204   0x0000d204   0x0000001c   Code   RO          704    i.SCU_HRCReadyFlag  lib_scu.o
    0x0000d220   0x0000d220   0x0000002c   Code   RO          710    i.SCU_SysClkSelect  lib_scu.o
    0x0000d24c   0x0000d24c   0x0000001c   Code   RO          711    i.SCU_XTALReadyFlag  lib_scu.o
    0x0000d268   0x0000d268   0x00000258   Code   RO         2624    i.SaveDatToEEP      remember.o
    0x0000d4c0   0x0000d4c0   0x00000170   Code   RO         2342    i.Swing_AntiDew     swing.o
    0x0000d630   0x0000d630   0x0000019c   Code   RO         2343    i.Swing_Con         swing.o
    0x0000d7cc   0x0000d7cc   0x0000002c   Code   RO         2344    i.Swing_Sweep       swing.o
    0x0000d7f8   0x0000d7f8   0x00000024   Code   RO         2218    i.Switch_Scan       switch.o
    0x0000d81c   0x0000d81c   0x0000003c   Code   RO         1786    i.SysTickInit       systick.o
    0x0000d858   0x0000d858   0x00000040   Code   RO          657    i.SysTick_Init      lib_scs.o
    0x0000d898   0x0000d898   0x00000050   Code   RO         2001    i.Sys_Run_Event_Per100ms  main.o
    0x0000d8e8   0x0000d8e8   0x00000050   Code   RO         2002    i.Sys_Run_Event_Per10ms  main.o
    0x0000d938   0x0000d938   0x0000003c   Code   RO         2003    i.Sys_Run_Event_Per1ms  main.o
    0x0000d974   0x0000d974   0x00000024   Code   RO         1921    i.Sys_Run_Func1_Per100ms  func.o
    0x0000d998   0x0000d998   0x0000000c   Code   RO         1922    i.Sys_Run_Func1_Per10ms  func.o
    0x0000d9a4   0x0000d9a4   0x00000024   Code   RO         1923    i.Sys_Run_Func2_Per100ms  func.o
    0x0000d9c8   0x0000d9c8   0x00000014   Code   RO         1924    i.Sys_Run_Func2_Per10ms  func.o
    0x0000d9dc   0x0000d9dc   0x00000008   Code   RO         1925    i.Sys_Run_Func3_Per100ms  func.o
    0x0000d9e4   0x0000d9e4   0x0000000c   Code   RO         1926    i.Sys_Run_Func3_Per10ms  func.o
    0x0000d9f0   0x0000d9f0   0x00000008   Code   RO         1928    i.Sys_Run_Func4_Per10ms  func.o
    0x0000d9f8   0x0000d9f8   0x0000000c   Code   RO         1929    i.Sys_Run_Func5_Per100ms  func.o
    0x0000da04   0x0000da04   0x00000010   Code   RO         1930    i.Sys_Run_Per2ms    func.o
    0x0000da14   0x0000da14   0x000000bc   Code   RO          712    i.SystemClockConfig  lib_scu.o
    0x0000dad0   0x0000dad0   0x0000008c   Code   RO          713    i.SystemClockSelect  lib_scu.o
    0x0000db5c   0x0000db5c   0x00000108   Code   RO         1748    i.SystemCoreClockUpdate  system_es8h018x.o
    0x0000dc64   0x0000dc64   0x0000002c   Code   RO          714    i.SystemHRCSelect   lib_scu.o
    0x0000dc90   0x0000dc90   0x00000008   Code   RO         1749    i.SystemInit        system_es8h018x.o
    0x0000dc98   0x0000dc98   0x0000007c   Code   RO         1532    i.T16N0_IRQHandler  irqhandler.o
    0x0000dd14   0x0000dd14   0x00000058   Code   RO         1840    i.T16NxInit         init_es8h018x_ex8h0163.o
    0x0000dd6c   0x0000dd6c   0x0000004c   Code   RO          933    i.T16Nx_BaseInit    lib_timer.o
    0x0000ddb8   0x0000ddb8   0x00000004   Code   RO          935    i.T16Nx_ClearIFPendingBit  lib_timer.o
    0x0000ddbc   0x0000ddbc   0x00000026   Code   RO          938    i.T16Nx_GetITStatus  lib_timer.o
    0x0000dde2   0x0000dde2   0x00000014   Code   RO          945    i.T16Nx_ITConfig    lib_timer.o
    0x0000ddf6   0x0000ddf6   0x00000018   Code   RO          946    i.T16Nx_MAT0ITConfig  lib_timer.o
    0x0000de0e   0x0000de0e   0x0000000e   Code   RO          962    i.T16Nx_SetMAT0     lib_timer.o
    0x0000de1c   0x0000de1c   0x00000010   Code   RO          967    i.T16Nx_SetPREMAT   lib_timer.o
    0x0000de2c   0x0000de2c   0x0000033c   Code   RO         3429    i.TempT1TSDeltaZone  tempr.o
    0x0000e168   0x0000e168   0x00000258   Code   RO         3430    i.TempT2HeatZone    tempr.o
    0x0000e3c0   0x0000e3c0   0x000003c0   Code   RO         3431    i.TempT4CoolZone    tempr.o
    0x0000e780   0x0000e780   0x000003a0   Code   RO         3432    i.TempT4HeatZone    tempr.o
    0x0000eb20   0x0000eb20   0x0000015c   Code   RO         3433    i.TempValueCon      tempr.o
    0x0000ec7c   0x0000ec7c   0x0000000e   Code   RO         3434    i.TempValueMul10    tempr.o
    0x0000ec8a   0x0000ec8a   0x00000062   Code   RO         3435    i.TempValueRounding  tempr.o
    0x0000ecec   0x0000ecec   0x00000010   Code   RO         3396    i.TimerPara_Init    timer.o
    0x0000ecfc   0x0000ecfc   0x00000020   Code   RO         3614    i.TimerUVC_Run      uvc.o
    0x0000ed1c   0x0000ed1c   0x00000098   Code   RO         3397    i.Timer_Run         timer.o
    0x0000edb4   0x0000edb4   0x00000018   Code   RO         1787    i.TimingDelay_Decrement  systick.o
    0x0000edcc   0x0000edcc   0x00000008   Code   RO         1533    i.UART0_IRQHandler  irqhandler.o
    0x0000edd4   0x0000edd4   0x00000008   Code   RO         1534    i.UART2_IRQHandler  irqhandler.o
    0x0000eddc   0x0000eddc   0x00000008   Code   RO         1535    i.UART4_IRQHandler  irqhandler.o
    0x0000ede4   0x0000ede4   0x00000014   Code   RO         1347    i.UART_GetFlagStatus  lib_uart.o
    0x0000edf8   0x0000edf8   0x00000012   Code   RO         1348    i.UART_GetITStatus  lib_uart.o
    0x0000ee0a   0x0000ee0a   0x00000018   Code   RO         1349    i.UART_ITConfig     lib_uart.o
    0x0000ee22   0x0000ee22   0x00000002   PAD
    0x0000ee24   0x0000ee24   0x00000170   Code   RO         1350    i.UART_Init         lib_uart.o
    0x0000ef94   0x0000ef94   0x00000018   Code   RO         1351    i.UART_RBIMConfig   lib_uart.o
    0x0000efac   0x0000efac   0x00000006   Code   RO         1352    i.UART_RecByte      lib_uart.o
    0x0000efb2   0x0000efb2   0x00000004   Code   RO         1357    i.UART_SendByte     lib_uart.o
    0x0000efb6   0x0000efb6   0x00000018   Code   RO         1360    i.UART_TBIMConfig   lib_uart.o
    0x0000efce   0x0000efce   0x00000002   PAD
    0x0000efd0   0x0000efd0   0x000000cc   Code   RO         2461    i.Uart0_Config      uart_app.o
    0x0000f09c   0x0000f09c   0x0000012c   Code   RO         2383    i.Uart0_Interrupt   uart.o
    0x0000f1c8   0x0000f1c8   0x00000058   Code   RO         2384    i.Uart0_SendPackDeal  uart.o
    0x0000f220   0x0000f220   0x000000cc   Code   RO         2462    i.Uart3_Config_lhh  uart_app.o
    0x0000f2ec   0x0000f2ec   0x00000050   Code   RO         2385    i.Uart3_Init        uart.o
    0x0000f33c   0x0000f33c   0x000000fc   Code   RO         2386    i.Uart3_Interrupt_lhh  uart.o
    0x0000f438   0x0000f438   0x000000cc   Code   RO         2463    i.Uart4_Config      uart_app.o
    0x0000f504   0x0000f504   0x00000128   Code   RO         2387    i.Uart4_Interrupt   uart.o
    0x0000f62c   0x0000f62c   0x00000058   Code   RO         2388    i.Uart4_SendPackDeal  uart.o
    0x0000f684   0x0000f684   0x00000084   Code   RO         2055    i.Write_24C02       eep24c02.o
    0x0000f708   0x0000f708   0x0000001c   Code   RO          386    i.__ARM_common_switch8  lib_gpio.o
    0x0000f724   0x0000f724   0x00000238   Code   RO         2464    i.app_Rec           uart_app.o
    0x0000f95c   0x0000f95c   0x00000044   Code   RO         2004    i.main              main.o
    0x0000f9a0   0x0000f9a0   0x00000060   Code   RO         2465    i.send_OneSix_Data  uart_app.o
    0x0000fa00   0x0000fa00   0x00000374   Code   RO         2466    i.send_Three_Data   uart_app.o
    0x0000fd74   0x0000fd74   0x00000020   Data   RO         4019    Region$$Table       anon$$obj.o


    Execution Region RW_IRAM1 (Exec base: 0x20000000, Load base: 0x0000fd94, Size: 0x00000ec8, Max: 0x00004000, ABSOLUTE)

    Exec Addr    Load Addr    Size         Type   Attr      Idx    E Section Name        Object

    0x20000000   0x0000fd94   0x00000004   Data   RW         1750    .data               system_es8h018x.o
    0x20000004   0x0000fd98   0x00000004   Data   RW         1788    .data               systick.o
    0x20000008   0x0000fd9c   0x00000002   Data   RW         1931    .data               func.o
    0x2000000a   0x0000fd9e   0x00000008   Data   RW         2005    .data               main.o
    0x20000012   0x0000fda6   0x00000019   Data   RW         2169    .data               ad_app.o
    0x2000002b   0x0000fdbf   0x00000004   Data   RW         2219    .data               switch.o
    0x2000002f   0x0000fdc3   0x00000001   Data   RW         2270    .data               stepmotor.o
    0x20000030   0x0000fdc4   0x0000000f   Data   RW         2390    .data               uart.o
    0x2000003f   0x0000fdd3   0x00000003   Data   RW         2552    .data               function.o
    0x20000042   0x0000fdd6   0x00000002   PAD
    0x20000044   0x0000fdd8   0x00000004   Data   RW         2694    .data               protect.o
    0x20000048   0x0000fddc   0x00000001   Data   RW         2806    .data               commmotdrv.o
    0x20000049   0x0000fddd   0x00000001   Data   RW         2970    .data               cmdin.o
    0x2000004a   0x0000fdde   0x00000002   PAD
    0x2000004c   0x0000fde0   0x00000008   Data   RW         3526    .data               fourway.o
    0x20000054   0x0000fde8   0x00000008   Data   RW         3570    .data               wpmotor.o
    0x2000005c   0x0000fdf0   0x00000008   Data   RW         3615    .data               uvc.o
    0x20000064   0x0000fdf8   0x0000001d   Data   RW         3676    .data               lowpower.o
    0x20000081   0x0000fe15   0x00000001   Data   RW         3708    .data               eaheater.o
    0x20000082   0x0000fe16   0x00000002   PAD
    0x20000084   0x0000fe18   0x00000008   Data   RW         3740    .data               dcfan.o
    0x2000008c   0x0000fe20   0x00000002   Data   RW         3778    .data               twifi.o
    0x2000008e   0x0000fe22   0x00000002   PAD
    0x20000090        -       0x00000142   Zero   RW         2056    .bss                eep24c02.o
    0x200001d2   0x0000fe22   0x00000002   PAD
    0x200001d4        -       0x00000030   Zero   RW         2133    .bss                ad.o
    0x20000204        -       0x00000290   Zero   RW         2168    .bss                ad_app.o
    0x20000494        -       0x00000010   Zero   RW         2269    .bss                stepmotor.o
    0x200004a4        -       0x00000014   Zero   RW         2345    .bss                swing.o
    0x200004b8        -       0x000002d0   Zero   RW         2389    .bss                uart.o
    0x20000788        -       0x00000016   Zero   RW         2467    .bss                uart_app.o
    0x2000079e   0x0000fe22   0x00000002   PAD
    0x200007a0        -       0x00000030   Zero   RW         2551    .bss                function.o
    0x200007d0        -       0x00000017   Zero   RW         2625    .bss                remember.o
    0x200007e7   0x0000fe22   0x00000001   PAD
    0x200007e8        -       0x0000001c   Zero   RW         2693    .bss                protect.o
    0x20000804        -       0x00000024   Zero   RW         2756    .bss                defrost.o
    0x20000828        -       0x00000050   Zero   RW         2805    .bss                commmotdrv.o
    0x20000878        -       0x00000026   Zero   RW         2922    .bss                commdisp.o
    0x2000089e        -       0x0000000c   Zero   RW         2969    .bss                cmdin.o
    0x200008aa        -       0x00000018   Zero   RW         3084    .bss                cmdout.o
    0x200008c2   0x0000fe22   0x00000002   PAD
    0x200008c4        -       0x00000040   Zero   RW         3239    .bss                comp.o
    0x20000904        -       0x0000003c   Zero   RW         3341    .bss                fan.o
    0x20000940        -       0x0000000c   Zero   RW         3398    .bss                timer.o
    0x2000094c        -       0x0000008c   Zero   RW         3436    .bss                tempr.o
    0x200009d8        -       0x00000014   Zero   RW         3497    .bss                waterbox.o
    0x200009ec        -       0x0000007c   Zero   RW         3777    .bss                twifi.o
    0x20000a68        -       0x00000060   Zero   RW         3890    .bss                c_p.l(libspace.o)
    0x20000ac8        -       0x00000000   Zero   RW            2    HEAP                startup_es8h018x.o
    0x20000ac8        -       0x00000400   Zero   RW            1    STACK               startup_es8h018x.o


==============================================================================

Image component sizes


      Code (inc. data)   RO Data    RW Data    ZI Data      Debug   Object Name

       636         22          4          0         48       2283   ad.o
      1064        118       1552         25        656       5161   ad_app.o
      4020        392          0          1         12       8538   cmdin.o
      3672        406          0          0         24      12802   cmdout.o
        34          0          0          0         38       8049   commdisp.o
      3392        216          0          1         80      21370   commmotdrv.o
      7000        378          0          0         64      12492   comp.o
       158          8          0          8          0       1890   dcfan.o
      1160         80          0          0         36       2407   defrost.o
       154         10          0          1          0       1931   eaheater.o
       742         10          0          0        322       8123   eep24c02.o
      3098        176          0          0         60       5914   fan.o
       366         32          0          8          0       2876   fourway.o
       226          8          0          2          0       5114   func.o
      6884        464          0          3         48       9814   function.o
       234          4          0          0          0       3977   init_es8h018x_ex8h0163.o
       166         14          0          0          0      17193   irqhandler.o
       392         22          0          0          0      65082   lib_adc.o
      2728        160          0          0          0      19450   lib_gpio.o
         0          0          0          0          0       2992   lib_printf.o
       164         10          0          0          0       2995   lib_scs.o
      1068         96          0          0          0      12121   lib_scu.o
       192          0          0          0          0       9459   lib_timer.o
       488          8          0          0          0       4899   lib_uart.o
      1322         76          0         29          0       3601   lowpower.o
       288         42          0          8          0       2985   main.o
      1672         80          0          4         28       4827   protect.o
      3208        160          0          0         23      11260   remember.o
        52         22        192          0       1024        704   startup_es8h018x.o
       748         26          8          1         16       5550   stepmotor.o
       544         50          0          0          0       1941   stepmotor_app.o
       824         86          0          0         20       2542   swing.o
       258         18          0          4          0       7243   switch.o
       272         32          0          4          0       1399   system_es8h018x.o
        84         18          0          4          0       1480   systick.o
      3800        102          0          0        140       9408   tempr.o
       168         12          0          0         12       1577   timer.o
      5346        296          0          2        124      24539   twifi.o
      1220        148          0         15        720      13310   uart.o
      3744        262          0          0         22      11149   uart_app.o
       330         34          0          8          0       3271   uvc.o
       216         10          0          0         20       1267   waterbox.o
       234         24          0          8          0       2816   wpmotor.o

    ----------------------------------------------------------------------
     62388       4132       1788        144       3544     357801   Object Totals
         0          0         32          0          0          0   (incl. Generated)
        20          0          0          8          7          0   (incl. Padding)

    ----------------------------------------------------------------------

      Code (inc. data)   RO Data    RW Data    ZI Data      Debug   Library Member Name

         8          0          0          0          0         68   __main.o
         0          0          0          0          0          0   __rtentry.o
        12          0          0          0          0          0   __rtentry2.o
         6          0          0          0          0          0   __rtentry4.o
        60          8          0          0          0          0   __scatter.o
        26          0          0          0          0          0   __scatter_copy.o
        28          0          0          0          0          0   __scatter_zi.o
       346          0          0          0          0         92   aeabi_sdiv.o
        16          0          0          0          0         68   exit.o
         6          0          0          0          0        136   heapauxi.o
         0          0          0          0          0          0   indicate_semi.o
         2          0          0          0          0          0   libinit.o
         2          0          0          0          0          0   libinit2.o
         2          0          0          0          0          0   libshutdown.o
         2          0          0          0          0          0   libshutdown2.o
         8          4          0          0         96         68   libspace.o
        64          0          0          0          0        108   rt_memclr.o
        56          0          0          0          0         68   rt_memcpy.o
         2          0          0          0          0          0   rtexit.o
        10          0          0          0          0          0   rtexit2.o
        12          4          0          0          0         60   sys_exit.o
        62          0          0          0          0         80   sys_stackheap_outer.o
         2          0          0          0          0         68   use_no_semi.o

    ----------------------------------------------------------------------
       740         16          0          0         96        816   Library Totals
         8          0          0          0          0          0   (incl. Padding)

    ----------------------------------------------------------------------

      Code (inc. data)   RO Data    RW Data    ZI Data      Debug   Library Name

       732         16          0          0         96        816   c_p.l

    ----------------------------------------------------------------------
       740         16          0          0         96        816   Library Totals

    ----------------------------------------------------------------------

==============================================================================


      Code (inc. data)   RO Data    RW Data    ZI Data      Debug   

     63128       4148       1788        144       3640     346629   Grand Totals
     63128       4148       1788        144       3640     346629   ELF Image Totals
     63128       4148       1788        144          0          0   ROM Totals

==============================================================================

    Total RO  Size (Code + RO Data)                64916 (  63.39kB)
    Total RW  Size (RW Data + ZI Data)              3784 (   3.70kB)
    Total ROM Size (Code + RO Data + RW Data)      65060 (  63.54kB)

==============================================================================

